
../../fault-finder/demos/sca25519-unprotected/bins/ones.elf:     file format elf32-littlearm


Disassembly of section .text:

08000000 <vector_table>:
 8000000:	00 00 01 10 9d 32 00 08 99 32 00 08 97 32 00 08     .....2...2...2..
 8000010:	97 32 00 08 97 32 00 08 97 32 00 08 00 00 00 00     .2...2...2......
	...
 800002c:	99 32 00 08 99 32 00 08 00 00 00 00 99 32 00 08     .2...2.......2..
 800003c:	99 32 00 08 97 32 00 08 97 32 00 08 97 32 00 08     .2...2...2...2..
 800004c:	97 32 00 08 97 32 00 08 97 32 00 08 97 32 00 08     .2...2...2...2..
 800005c:	97 32 00 08 97 32 00 08 97 32 00 08 97 32 00 08     .2...2...2...2..
 800006c:	97 32 00 08 97 32 00 08 97 32 00 08 97 32 00 08     .2...2...2...2..
 800007c:	97 32 00 08 f5 04 00 08 1d 05 00 08 97 32 00 08     .2...........2..
 800008c:	97 32 00 08 97 32 00 08 97 32 00 08 97 32 00 08     .2...2...2...2..
 800009c:	97 32 00 08 97 32 00 08 97 32 00 08 97 32 00 08     .2...2...2...2..
 80000ac:	97 32 00 08 97 32 00 08 97 32 00 08 97 32 00 08     .2...2...2...2..
 80000bc:	97 32 00 08 97 32 00 08 97 32 00 08 97 32 00 08     .2...2...2...2..
 80000cc:	97 32 00 08 97 32 00 08 97 32 00 08 97 32 00 08     .2...2...2...2..
 80000dc:	97 32 00 08 97 32 00 08 97 32 00 08 97 32 00 08     .2...2...2...2..
 80000ec:	97 32 00 08 97 32 00 08 97 32 00 08 97 32 00 08     .2...2...2...2..
 80000fc:	97 32 00 08 97 32 00 08 97 32 00 08 97 32 00 08     .2...2...2...2..
 800010c:	97 32 00 08 97 32 00 08 97 32 00 08 97 32 00 08     .2...2...2...2..
 800011c:	97 32 00 08 97 32 00 08 97 32 00 08 97 32 00 08     .2...2...2...2..
 800012c:	97 32 00 08 97 32 00 08 97 32 00 08 97 32 00 08     .2...2...2...2..
 800013c:	97 32 00 08 97 32 00 08 97 32 00 08 97 32 00 08     .2...2...2...2..
 800014c:	97 32 00 08 97 32 00 08 97 32 00 08 97 32 00 08     .2...2...2...2..
 800015c:	97 32 00 08 97 32 00 08 97 32 00 08 97 32 00 08     .2...2...2...2..
 800016c:	97 32 00 08 97 32 00 08 97 32 00 08 97 32 00 08     .2...2...2...2..
 800017c:	97 32 00 08 97 32 00 08 97 32 00 08 97 32 00 08     .2...2...2...2..
 800018c:	97 32 00 08 97 32 00 08 97 32 00 08 97 32 00 08     .2...2...2...2..
 800019c:	97 32 00 08 97 32 00 08 97 32 00 08 97 32 00 08     .2...2...2...2..

080001ac <main>:
 80001ac:	b500      	push	{lr}
 80001ae:	b089      	sub	sp, #36	; 0x24
 80001b0:	4903      	ldr	r1, [pc, #12]	; (80001c0 <main+0x14>)
 80001b2:	4668      	mov	r0, sp
 80001b4:	f001 f86a 	bl	800128c <crypto_scalarmult_base_curve25519>
 80001b8:	2000      	movs	r0, #0
 80001ba:	b009      	add	sp, #36	; 0x24
 80001bc:	f85d fb04 	ldr.w	pc, [sp], #4
 80001c0:	080033a8 	.word	0x080033a8

080001c4 <clock_setup>:
 80001c4:	b508      	push	{r3, lr}
 80001c6:	480f      	ldr	r0, [pc, #60]	; (8000204 <clock_setup+0x40>)
 80001c8:	f002 ff62 	bl	8003090 <rcc_clock_setup_pll>
 80001cc:	f44f 60c0 	mov.w	r0, #1536	; 0x600
 80001d0:	f002 fe56 	bl	8002e80 <rcc_periph_clock_enable>
 80001d4:	f640 0011 	movw	r0, #2065	; 0x811
 80001d8:	f002 fe52 	bl	8002e80 <rcc_periph_clock_enable>
 80001dc:	f240 6002 	movw	r0, #1538	; 0x602
 80001e0:	f002 fe4e 	bl	8002e80 <rcc_periph_clock_enable>
 80001e4:	f640 0013 	movw	r0, #2067	; 0x813
 80001e8:	f002 fe4a 	bl	8002e80 <rcc_periph_clock_enable>
 80001ec:	f240 6015 	movw	r0, #1557	; 0x615
 80001f0:	f002 fe46 	bl	8002e80 <rcc_periph_clock_enable>
 80001f4:	f240 6086 	movw	r0, #1670	; 0x686
 80001f8:	f002 fe42 	bl	8002e80 <rcc_periph_clock_enable>
 80001fc:	e8bd 4008 	ldmia.w	sp!, {r3, lr}
 8000200:	f002 bde2 	b.w	8002dc8 <flash_prefetch_enable>
 8000204:	080033c8 	.word	0x080033c8

08000208 <gpio_setup>:
 8000208:	b510      	push	{r4, lr}
 800020a:	230c      	movs	r3, #12
 800020c:	4c0c      	ldr	r4, [pc, #48]	; (8000240 <gpio_setup+0x38>)
 800020e:	480d      	ldr	r0, [pc, #52]	; (8000244 <gpio_setup+0x3c>)
 8000210:	2200      	movs	r2, #0
 8000212:	2102      	movs	r1, #2
 8000214:	f002 fdea 	bl	8002dec <gpio_mode_setup>
 8000218:	480a      	ldr	r0, [pc, #40]	; (8000244 <gpio_setup+0x3c>)
 800021a:	220c      	movs	r2, #12
 800021c:	2107      	movs	r1, #7
 800021e:	f002 fe05 	bl	8002e2c <gpio_set_af>
 8000222:	4620      	mov	r0, r4
 8000224:	2200      	movs	r2, #0
 8000226:	2102      	movs	r1, #2
 8000228:	f44f 6380 	mov.w	r3, #1024	; 0x400
 800022c:	f002 fdde 	bl	8002dec <gpio_mode_setup>
 8000230:	4620      	mov	r0, r4
 8000232:	f44f 6280 	mov.w	r2, #1024	; 0x400
 8000236:	e8bd 4010 	ldmia.w	sp!, {r4, lr}
 800023a:	2108      	movs	r1, #8
 800023c:	f002 bdf6 	b.w	8002e2c <gpio_set_af>
 8000240:	40020800 	.word	0x40020800
 8000244:	40020000 	.word	0x40020000

08000248 <usart_setup>:
 8000248:	b570      	push	{r4, r5, r6, lr}
 800024a:	4d1d      	ldr	r5, [pc, #116]	; (80002c0 <usart_setup+0x78>)
 800024c:	4c1d      	ldr	r4, [pc, #116]	; (80002c4 <usart_setup+0x7c>)
 800024e:	4606      	mov	r6, r0
 8000250:	4601      	mov	r1, r0
 8000252:	4628      	mov	r0, r5
 8000254:	f002 ffaa 	bl	80031ac <usart_set_baudrate>
 8000258:	4628      	mov	r0, r5
 800025a:	2108      	movs	r1, #8
 800025c:	f002 ffbc 	bl	80031d8 <usart_set_databits>
 8000260:	4628      	mov	r0, r5
 8000262:	2100      	movs	r1, #0
 8000264:	f002 ffc1 	bl	80031ea <usart_set_stopbits>
 8000268:	4628      	mov	r0, r5
 800026a:	210c      	movs	r1, #12
 800026c:	f002 ffc9 	bl	8003202 <usart_set_mode>
 8000270:	4628      	mov	r0, r5
 8000272:	2100      	movs	r1, #0
 8000274:	f002 ffbf 	bl	80031f6 <usart_set_parity>
 8000278:	4628      	mov	r0, r5
 800027a:	2100      	movs	r1, #0
 800027c:	f002 ffc7 	bl	800320e <usart_set_flow_control>
 8000280:	4628      	mov	r0, r5
 8000282:	f002 ffca 	bl	800321a <usart_enable>
 8000286:	4631      	mov	r1, r6
 8000288:	4620      	mov	r0, r4
 800028a:	f002 ff8f 	bl	80031ac <usart_set_baudrate>
 800028e:	4620      	mov	r0, r4
 8000290:	2108      	movs	r1, #8
 8000292:	f002 ffa1 	bl	80031d8 <usart_set_databits>
 8000296:	4620      	mov	r0, r4
 8000298:	2100      	movs	r1, #0
 800029a:	f002 ffa6 	bl	80031ea <usart_set_stopbits>
 800029e:	4620      	mov	r0, r4
 80002a0:	2108      	movs	r1, #8
 80002a2:	f002 ffae 	bl	8003202 <usart_set_mode>
 80002a6:	4620      	mov	r0, r4
 80002a8:	2100      	movs	r1, #0
 80002aa:	f002 ffa4 	bl	80031f6 <usart_set_parity>
 80002ae:	4620      	mov	r0, r4
 80002b0:	2100      	movs	r1, #0
 80002b2:	f002 ffac 	bl	800320e <usart_set_flow_control>
 80002b6:	4620      	mov	r0, r4
 80002b8:	e8bd 4070 	ldmia.w	sp!, {r4, r5, r6, lr}
 80002bc:	f002 bfad 	b.w	800321a <usart_enable>
 80002c0:	40004400 	.word	0x40004400
 80002c4:	40004c00 	.word	0x40004c00

080002c8 <dma_request_setup>:
 80002c8:	b510      	push	{r4, lr}
 80002ca:	4c20      	ldr	r4, [pc, #128]	; (800034c <dma_request_setup+0x84>)
 80002cc:	2105      	movs	r1, #5
 80002ce:	4620      	mov	r0, r4
 80002d0:	f002 fc98 	bl	8002c04 <dma_stream_reset>
 80002d4:	2010      	movs	r0, #16
 80002d6:	f003 f82d 	bl	8003334 <nvic_enable_irq>
 80002da:	4620      	mov	r0, r4
 80002dc:	4a1c      	ldr	r2, [pc, #112]	; (8000350 <dma_request_setup+0x88>)
 80002de:	2105      	movs	r1, #5
 80002e0:	f002 fd57 	bl	8002d92 <dma_set_peripheral_address>
 80002e4:	4620      	mov	r0, r4
 80002e6:	2200      	movs	r2, #0
 80002e8:	2105      	movs	r1, #5
 80002ea:	f002 fcc0 	bl	8002c6e <dma_set_transfer_mode>
 80002ee:	4620      	mov	r0, r4
 80002f0:	2200      	movs	r2, #0
 80002f2:	2105      	movs	r1, #5
 80002f4:	f002 fce3 	bl	8002cbe <dma_set_peripheral_size>
 80002f8:	4620      	mov	r0, r4
 80002fa:	2200      	movs	r2, #0
 80002fc:	2105      	movs	r1, #5
 80002fe:	f002 fcd2 	bl	8002ca6 <dma_set_memory_size>
 8000302:	f44f 3240 	mov.w	r2, #196608	; 0x30000
 8000306:	4620      	mov	r0, r4
 8000308:	2105      	movs	r1, #5
 800030a:	f002 fcc0 	bl	8002c8e <dma_set_priority>
 800030e:	4620      	mov	r0, r4
 8000310:	2100      	movs	r1, #0
 8000312:	f002 fce9 	bl	8002ce8 <dma_disable_peripheral_increment_mode>
 8000316:	4620      	mov	r0, r4
 8000318:	2105      	movs	r1, #5
 800031a:	f002 fcdc 	bl	8002cd6 <dma_enable_memory_increment_mode>
 800031e:	4620      	mov	r0, r4
 8000320:	2105      	movs	r1, #5
 8000322:	f002 fcf2 	bl	8002d0a <dma_disable_transfer_error_interrupt>
 8000326:	4620      	mov	r0, r4
 8000328:	2105      	movs	r1, #5
 800032a:	f002 fcf7 	bl	8002d1c <dma_disable_half_transfer_interrupt>
 800032e:	4620      	mov	r0, r4
 8000330:	2105      	movs	r1, #5
 8000332:	f002 fd0a 	bl	8002d4a <dma_disable_direct_mode_error_interrupt>
 8000336:	4620      	mov	r0, r4
 8000338:	2105      	movs	r1, #5
 800033a:	f002 fd0f 	bl	8002d5c <dma_disable_fifo_error_interrupt>
 800033e:	4620      	mov	r0, r4
 8000340:	2105      	movs	r1, #5
 8000342:	e8bd 4010 	ldmia.w	sp!, {r4, lr}
 8000346:	f002 bcf2 	b.w	8002d2e <dma_enable_transfer_complete_interrupt>
 800034a:	bf00      	nop
 800034c:	40026000 	.word	0x40026000
 8000350:	40004404 	.word	0x40004404

08000354 <dma_transmit_setup>:
 8000354:	b510      	push	{r4, lr}
 8000356:	4c20      	ldr	r4, [pc, #128]	; (80003d8 <dma_transmit_setup+0x84>)
 8000358:	2106      	movs	r1, #6
 800035a:	4620      	mov	r0, r4
 800035c:	f002 fc52 	bl	8002c04 <dma_stream_reset>
 8000360:	2011      	movs	r0, #17
 8000362:	f002 ffe7 	bl	8003334 <nvic_enable_irq>
 8000366:	4620      	mov	r0, r4
 8000368:	4a1c      	ldr	r2, [pc, #112]	; (80003dc <dma_transmit_setup+0x88>)
 800036a:	2106      	movs	r1, #6
 800036c:	f002 fd11 	bl	8002d92 <dma_set_peripheral_address>
 8000370:	4620      	mov	r0, r4
 8000372:	2240      	movs	r2, #64	; 0x40
 8000374:	2106      	movs	r1, #6
 8000376:	f002 fc7a 	bl	8002c6e <dma_set_transfer_mode>
 800037a:	4620      	mov	r0, r4
 800037c:	2200      	movs	r2, #0
 800037e:	2106      	movs	r1, #6
 8000380:	f002 fc9d 	bl	8002cbe <dma_set_peripheral_size>
 8000384:	4620      	mov	r0, r4
 8000386:	2200      	movs	r2, #0
 8000388:	2106      	movs	r1, #6
 800038a:	f002 fc8c 	bl	8002ca6 <dma_set_memory_size>
 800038e:	f44f 3240 	mov.w	r2, #196608	; 0x30000
 8000392:	4620      	mov	r0, r4
 8000394:	2106      	movs	r1, #6
 8000396:	f002 fc7a 	bl	8002c8e <dma_set_priority>
 800039a:	4620      	mov	r0, r4
 800039c:	2100      	movs	r1, #0
 800039e:	f002 fca3 	bl	8002ce8 <dma_disable_peripheral_increment_mode>
 80003a2:	4620      	mov	r0, r4
 80003a4:	2106      	movs	r1, #6
 80003a6:	f002 fc96 	bl	8002cd6 <dma_enable_memory_increment_mode>
 80003aa:	4620      	mov	r0, r4
 80003ac:	2106      	movs	r1, #6
 80003ae:	f002 fcac 	bl	8002d0a <dma_disable_transfer_error_interrupt>
 80003b2:	4620      	mov	r0, r4
 80003b4:	2106      	movs	r1, #6
 80003b6:	f002 fcb1 	bl	8002d1c <dma_disable_half_transfer_interrupt>
 80003ba:	4620      	mov	r0, r4
 80003bc:	2106      	movs	r1, #6
 80003be:	f002 fcc4 	bl	8002d4a <dma_disable_direct_mode_error_interrupt>
 80003c2:	4620      	mov	r0, r4
 80003c4:	2106      	movs	r1, #6
 80003c6:	f002 fcc9 	bl	8002d5c <dma_disable_fifo_error_interrupt>
 80003ca:	4620      	mov	r0, r4
 80003cc:	2106      	movs	r1, #6
 80003ce:	e8bd 4010 	ldmia.w	sp!, {r4, lr}
 80003d2:	f002 bcac 	b.w	8002d2e <dma_enable_transfer_complete_interrupt>
 80003d6:	bf00      	nop
 80003d8:	40026000 	.word	0x40026000
 80003dc:	40004404 	.word	0x40004404

080003e0 <dma_transmit>:
 80003e0:	b538      	push	{r3, r4, r5, lr}
 80003e2:	4c0d      	ldr	r4, [pc, #52]	; (8000418 <dma_transmit+0x38>)
 80003e4:	4602      	mov	r2, r0
 80003e6:	460d      	mov	r5, r1
 80003e8:	4620      	mov	r0, r4
 80003ea:	2106      	movs	r1, #6
 80003ec:	f002 fcd9 	bl	8002da2 <dma_set_memory_address>
 80003f0:	b2aa      	uxth	r2, r5
 80003f2:	4620      	mov	r0, r4
 80003f4:	2106      	movs	r1, #6
 80003f6:	f002 fce1 	bl	8002dbc <dma_set_number_of_data>
 80003fa:	4620      	mov	r0, r4
 80003fc:	f04f 6200 	mov.w	r2, #134217728	; 0x8000000
 8000400:	2106      	movs	r1, #6
 8000402:	f002 fc7a 	bl	8002cfa <dma_channel_select>
 8000406:	4620      	mov	r0, r4
 8000408:	2106      	movs	r1, #6
 800040a:	f002 fcb0 	bl	8002d6e <dma_enable_stream>
 800040e:	e8bd 4038 	ldmia.w	sp!, {r3, r4, r5, lr}
 8000412:	4802      	ldr	r0, [pc, #8]	; (800041c <dma_transmit+0x3c>)
 8000414:	f002 bf25 	b.w	8003262 <usart_enable_tx_dma>
 8000418:	40026000 	.word	0x40026000
 800041c:	40004400 	.word	0x40004400

08000420 <dma_done>:
 8000420:	4a04      	ldr	r2, [pc, #16]	; (8000434 <dma_done+0x14>)
 8000422:	4b05      	ldr	r3, [pc, #20]	; (8000438 <dma_done+0x18>)
 8000424:	6810      	ldr	r0, [r2, #0]
 8000426:	681b      	ldr	r3, [r3, #0]
 8000428:	4318      	orrs	r0, r3
 800042a:	43c0      	mvns	r0, r0
 800042c:	f000 0001 	and.w	r0, r0, #1
 8000430:	4770      	bx	lr
 8000432:	bf00      	nop
 8000434:	40026088 	.word	0x40026088
 8000438:	400260a0 	.word	0x400260a0

0800043c <send_USART_str>:
 800043c:	b570      	push	{r4, r5, r6, lr}
 800043e:	7801      	ldrb	r1, [r0, #0]
 8000440:	4604      	mov	r4, r0
 8000442:	b141      	cbz	r1, 8000456 <send_USART_str+0x1a>
 8000444:	4e12      	ldr	r6, [pc, #72]	; (8000490 <send_USART_str+0x54>)
 8000446:	4605      	mov	r5, r0
 8000448:	4630      	mov	r0, r6
 800044a:	f002 feeb 	bl	8003224 <usart_send_blocking>
 800044e:	f815 1f01 	ldrb.w	r1, [r5, #1]!
 8000452:	2900      	cmp	r1, #0
 8000454:	d1f8      	bne.n	8000448 <send_USART_str+0xc>
 8000456:	480e      	ldr	r0, [pc, #56]	; (8000490 <send_USART_str+0x54>)
 8000458:	210d      	movs	r1, #13
 800045a:	f002 fee3 	bl	8003224 <usart_send_blocking>
 800045e:	210a      	movs	r1, #10
 8000460:	480b      	ldr	r0, [pc, #44]	; (8000490 <send_USART_str+0x54>)
 8000462:	f002 fedf 	bl	8003224 <usart_send_blocking>
 8000466:	7821      	ldrb	r1, [r4, #0]
 8000468:	b139      	cbz	r1, 800047a <send_USART_str+0x3e>
 800046a:	4d0a      	ldr	r5, [pc, #40]	; (8000494 <send_USART_str+0x58>)
 800046c:	4628      	mov	r0, r5
 800046e:	f002 fed9 	bl	8003224 <usart_send_blocking>
 8000472:	f814 1f01 	ldrb.w	r1, [r4, #1]!
 8000476:	2900      	cmp	r1, #0
 8000478:	d1f8      	bne.n	800046c <send_USART_str+0x30>
 800047a:	4806      	ldr	r0, [pc, #24]	; (8000494 <send_USART_str+0x58>)
 800047c:	210d      	movs	r1, #13
 800047e:	f002 fed1 	bl	8003224 <usart_send_blocking>
 8000482:	e8bd 4070 	ldmia.w	sp!, {r4, r5, r6, lr}
 8000486:	4803      	ldr	r0, [pc, #12]	; (8000494 <send_USART_str+0x58>)
 8000488:	210a      	movs	r1, #10
 800048a:	f002 becb 	b.w	8003224 <usart_send_blocking>
 800048e:	bf00      	nop
 8000490:	40004400 	.word	0x40004400
 8000494:	40004c00 	.word	0x40004c00

08000498 <send_USART_bytes>:
 8000498:	2900      	cmp	r1, #0
 800049a:	dd14      	ble.n	80004c6 <send_USART_bytes+0x2e>
 800049c:	b5f8      	push	{r3, r4, r5, r6, r7, lr}
 800049e:	1e44      	subs	r4, r0, #1
 80004a0:	4f09      	ldr	r7, [pc, #36]	; (80004c8 <send_USART_bytes+0x30>)
 80004a2:	1866      	adds	r6, r4, r1
 80004a4:	4625      	mov	r5, r4
 80004a6:	f815 1f01 	ldrb.w	r1, [r5, #1]!
 80004aa:	4638      	mov	r0, r7
 80004ac:	f002 feba 	bl	8003224 <usart_send_blocking>
 80004b0:	42b5      	cmp	r5, r6
 80004b2:	d1f8      	bne.n	80004a6 <send_USART_bytes+0xe>
 80004b4:	4d05      	ldr	r5, [pc, #20]	; (80004cc <send_USART_bytes+0x34>)
 80004b6:	f814 1f01 	ldrb.w	r1, [r4, #1]!
 80004ba:	4628      	mov	r0, r5
 80004bc:	f002 feb2 	bl	8003224 <usart_send_blocking>
 80004c0:	42b4      	cmp	r4, r6
 80004c2:	d1f8      	bne.n	80004b6 <send_USART_bytes+0x1e>
 80004c4:	bdf8      	pop	{r3, r4, r5, r6, r7, pc}
 80004c6:	4770      	bx	lr
 80004c8:	40004400 	.word	0x40004400
 80004cc:	40004c00 	.word	0x40004c00

080004d0 <recv_USART_bytes>:
 80004d0:	2900      	cmp	r1, #0
 80004d2:	dd0b      	ble.n	80004ec <recv_USART_bytes+0x1c>
 80004d4:	b570      	push	{r4, r5, r6, lr}
 80004d6:	1e44      	subs	r4, r0, #1
 80004d8:	4e05      	ldr	r6, [pc, #20]	; (80004f0 <recv_USART_bytes+0x20>)
 80004da:	1865      	adds	r5, r4, r1
 80004dc:	4630      	mov	r0, r6
 80004de:	f002 fead 	bl	800323c <usart_recv_blocking>
 80004e2:	f804 0f01 	strb.w	r0, [r4, #1]!
 80004e6:	42ac      	cmp	r4, r5
 80004e8:	d1f8      	bne.n	80004dc <recv_USART_bytes+0xc>
 80004ea:	bd70      	pop	{r4, r5, r6, pc}
 80004ec:	4770      	bx	lr
 80004ee:	bf00      	nop
 80004f0:	40004400 	.word	0x40004400

080004f4 <dma1_stream5_isr>:
 80004f4:	b510      	push	{r4, lr}
 80004f6:	4c07      	ldr	r4, [pc, #28]	; (8000514 <dma1_stream5_isr+0x20>)
 80004f8:	4807      	ldr	r0, [pc, #28]	; (8000518 <dma1_stream5_isr+0x24>)
 80004fa:	f002 fead 	bl	8003258 <usart_disable_rx_dma>
 80004fe:	4620      	mov	r0, r4
 8000500:	2105      	movs	r1, #5
 8000502:	2220      	movs	r2, #32
 8000504:	f002 fba4 	bl	8002c50 <dma_clear_interrupt_flags>
 8000508:	4620      	mov	r0, r4
 800050a:	2105      	movs	r1, #5
 800050c:	e8bd 4010 	ldmia.w	sp!, {r4, lr}
 8000510:	f002 bc36 	b.w	8002d80 <dma_disable_stream>
 8000514:	40026000 	.word	0x40026000
 8000518:	40004400 	.word	0x40004400

0800051c <dma1_stream6_isr>:
 800051c:	b510      	push	{r4, lr}
 800051e:	4c07      	ldr	r4, [pc, #28]	; (800053c <dma1_stream6_isr+0x20>)
 8000520:	4807      	ldr	r0, [pc, #28]	; (8000540 <dma1_stream6_isr+0x24>)
 8000522:	f002 fea3 	bl	800326c <usart_disable_tx_dma>
 8000526:	4620      	mov	r0, r4
 8000528:	2106      	movs	r1, #6
 800052a:	2220      	movs	r2, #32
 800052c:	f002 fb90 	bl	8002c50 <dma_clear_interrupt_flags>
 8000530:	4620      	mov	r0, r4
 8000532:	2106      	movs	r1, #6
 8000534:	e8bd 4010 	ldmia.w	sp!, {r4, lr}
 8000538:	f002 bc22 	b.w	8002d80 <dma_disable_stream>
 800053c:	40026000 	.word	0x40026000
 8000540:	40004400 	.word	0x40004400

08000544 <signal_host>:
 8000544:	b508      	push	{r3, lr}
 8000546:	4805      	ldr	r0, [pc, #20]	; (800055c <signal_host+0x18>)
 8000548:	2178      	movs	r1, #120	; 0x78
 800054a:	f002 fe6b 	bl	8003224 <usart_send_blocking>
 800054e:	e8bd 4008 	ldmia.w	sp!, {r3, lr}
 8000552:	4803      	ldr	r0, [pc, #12]	; (8000560 <signal_host+0x1c>)
 8000554:	2178      	movs	r1, #120	; 0x78
 8000556:	f002 be65 	b.w	8003224 <usart_send_blocking>
 800055a:	bf00      	nop
 800055c:	40004400 	.word	0x40004400
 8000560:	40004c00 	.word	0x40004c00

08000564 <dma_request>:
 8000564:	b538      	push	{r3, r4, r5, lr}
 8000566:	4c0e      	ldr	r4, [pc, #56]	; (80005a0 <dma_request+0x3c>)
 8000568:	4602      	mov	r2, r0
 800056a:	460d      	mov	r5, r1
 800056c:	4620      	mov	r0, r4
 800056e:	2105      	movs	r1, #5
 8000570:	f002 fc17 	bl	8002da2 <dma_set_memory_address>
 8000574:	b2aa      	uxth	r2, r5
 8000576:	4620      	mov	r0, r4
 8000578:	2105      	movs	r1, #5
 800057a:	f002 fc1f 	bl	8002dbc <dma_set_number_of_data>
 800057e:	4620      	mov	r0, r4
 8000580:	f04f 6200 	mov.w	r2, #134217728	; 0x8000000
 8000584:	2105      	movs	r1, #5
 8000586:	f002 fbb8 	bl	8002cfa <dma_channel_select>
 800058a:	4620      	mov	r0, r4
 800058c:	2105      	movs	r1, #5
 800058e:	f002 fbee 	bl	8002d6e <dma_enable_stream>
 8000592:	f7ff ffd7 	bl	8000544 <signal_host>
 8000596:	e8bd 4038 	ldmia.w	sp!, {r3, r4, r5, lr}
 800059a:	4802      	ldr	r0, [pc, #8]	; (80005a4 <dma_request+0x40>)
 800059c:	f002 be57 	b.w	800324e <usart_enable_rx_dma>
 80005a0:	40026000 	.word	0x40026000
 80005a4:	40004400 	.word	0x40004400

080005a8 <fe25519_square_asm>:
 80005a8:	e92d 5ff1 	stmdb	sp!, {r0, r4, r5, r6, r7, r8, r9, sl, fp, ip, lr}
 80005ac:	b085      	sub	sp, #20
 80005ae:	6808      	ldr	r0, [r1, #0]
 80005b0:	684a      	ldr	r2, [r1, #4]
 80005b2:	688b      	ldr	r3, [r1, #8]
 80005b4:	68cc      	ldr	r4, [r1, #12]
 80005b6:	690d      	ldr	r5, [r1, #16]
 80005b8:	694e      	ldr	r6, [r1, #20]
 80005ba:	fba0 7802 	umull	r7, r8, r0, r2
 80005be:	fba0 9a00 	umull	r9, sl, r0, r0
 80005c2:	fbe0 7a62 	umaal	r7, sl, r0, r2
 80005c6:	fbe2 8a62 	umaal	r8, sl, r2, r2
 80005ca:	f8cd 9000 	str.w	r9, [sp]
 80005ce:	9701      	str	r7, [sp, #4]
 80005d0:	fba0 7904 	umull	r7, r9, r0, r4
 80005d4:	fba0 bc03 	umull	fp, ip, r0, r3
 80005d8:	eb1b 0b0b 	adds.w	fp, fp, fp
 80005dc:	ea8e 0e0e 	eor.w	lr, lr, lr
 80005e0:	fbe8 8b6e 	umaal	r8, fp, r8, lr
 80005e4:	fbea ab6e 	umaal	sl, fp, sl, lr
 80005e8:	f8cd 8008 	str.w	r8, [sp, #8]
 80005ec:	fbe2 7c63 	umaal	r7, ip, r2, r3
 80005f0:	417f      	adcs	r7, r7
 80005f2:	fbe7 7a6e 	umaal	r7, sl, r7, lr
 80005f6:	9703      	str	r7, [sp, #12]
 80005f8:	44da      	add	sl, fp
 80005fa:	698f      	ldr	r7, [r1, #24]
 80005fc:	f8d1 801c 	ldr.w	r8, [r1, #28]
 8000600:	fba0 1b06 	umull	r1, fp, r0, r6
 8000604:	fbe0 9c65 	umaal	r9, ip, r0, r5
 8000608:	fbe2 1c65 	umaal	r1, ip, r2, r5
 800060c:	fbe0 bc67 	umaal	fp, ip, r0, r7
 8000610:	fbe2 9e04 	umlal	r9, lr, r2, r4
 8000614:	fbe3 1e64 	umaal	r1, lr, r3, r4
 8000618:	fbe2 be66 	umaal	fp, lr, r2, r6
 800061c:	fbe0 ce68 	umaal	ip, lr, r0, r8
 8000620:	eb59 0909 	adcs.w	r9, r9, r9
 8000624:	4149      	adcs	r1, r1
 8000626:	ea80 0000 	eor.w	r0, r0, r0
 800062a:	fbe3 9a63 	umaal	r9, sl, r3, r3
 800062e:	f8cd 9010 	str.w	r9, [sp, #16]
 8000632:	fbe1 1a60 	umaal	r1, sl, r1, r0
 8000636:	fbe3 b005 	umlal	fp, r0, r3, r5
 800063a:	fbe2 0c67 	umaal	r0, ip, r2, r7
 800063e:	fbe2 ce68 	umaal	ip, lr, r2, r8
 8000642:	eb5b 0b0b 	adcs.w	fp, fp, fp
 8000646:	fbe4 ab64 	umaal	sl, fp, r4, r4
 800064a:	ea82 0202 	eor.w	r2, r2, r2
 800064e:	fbe3 0206 	umlal	r0, r2, r3, r6
 8000652:	fbe3 2c67 	umaal	r2, ip, r3, r7
 8000656:	fbe3 ce68 	umaal	ip, lr, r3, r8
 800065a:	ea83 0303 	eor.w	r3, r3, r3
 800065e:	fbe4 0305 	umlal	r0, r3, r4, r5
 8000662:	fbe4 2366 	umaal	r2, r3, r4, r6
 8000666:	fbe4 3c67 	umaal	r3, ip, r4, r7
 800066a:	fbe4 ce68 	umaal	ip, lr, r4, r8
 800066e:	4140      	adcs	r0, r0
 8000670:	ea89 0909 	eor.w	r9, r9, r9
 8000674:	fbe0 0b69 	umaal	r0, fp, r0, r9
 8000678:	4152      	adcs	r2, r2
 800067a:	fbe5 3906 	umlal	r3, r9, r5, r6
 800067e:	fbe5 9c67 	umaal	r9, ip, r5, r7
 8000682:	fbe5 ce68 	umaal	ip, lr, r5, r8
 8000686:	ea84 0404 	eor.w	r4, r4, r4
 800068a:	fbe6 c407 	umlal	ip, r4, r6, r7
 800068e:	fbe6 4e68 	umaal	r4, lr, r6, r8
 8000692:	fbe5 2b65 	umaal	r2, fp, r5, r5
 8000696:	ea85 0505 	eor.w	r5, r5, r5
 800069a:	415b      	adcs	r3, r3
 800069c:	fbe3 3b65 	umaal	r3, fp, r3, r5
 80006a0:	fbe7 e508 	umlal	lr, r5, r7, r8
 80006a4:	eb59 0909 	adcs.w	r9, r9, r9
 80006a8:	eb5c 0c0c 	adcs.w	ip, ip, ip
 80006ac:	4164      	adcs	r4, r4
 80006ae:	eb5e 0e0e 	adcs.w	lr, lr, lr
 80006b2:	416d      	adcs	r5, r5
 80006b4:	fbe6 9b66 	umaal	r9, fp, r6, r6
 80006b8:	ea86 0606 	eor.w	r6, r6, r6
 80006bc:	fbeb bc66 	umaal	fp, ip, fp, r6
 80006c0:	fbe7 4c67 	umaal	r4, ip, r7, r7
 80006c4:	fbec ce66 	umaal	ip, lr, ip, r6
 80006c8:	fbe8 5e68 	umaal	r5, lr, r8, r8
 80006cc:	eb5e 0e06 	adcs.w	lr, lr, r6
 80006d0:	f04f 0726 	mov.w	r7, #38	; 0x26
 80006d4:	fbee 0607 	umlal	r0, r6, lr, r7
 80006d8:	f04f 0813 	mov.w	r8, #19
 80006dc:	ea4f 7ed0 	mov.w	lr, r0, lsr #31
 80006e0:	fb0e f808 	mul.w	r8, lr, r8
 80006e4:	ea4f 0040 	mov.w	r0, r0, lsl #1
 80006e8:	ea4f 0050 	mov.w	r0, r0, lsr #1
 80006ec:	f8dd e000 	ldr.w	lr, [sp]
 80006f0:	fbe2 8e67 	umaal	r8, lr, r2, r7
 80006f4:	ea82 0202 	eor.w	r2, r2, r2
 80006f8:	fbe6 8207 	umlal	r8, r2, r6, r7
 80006fc:	4472      	add	r2, lr
 80006fe:	9e05      	ldr	r6, [sp, #20]
 8000700:	f8dd e004 	ldr.w	lr, [sp, #4]
 8000704:	f8c6 8000 	str.w	r8, [r6]
 8000708:	fbe3 2e67 	umaal	r2, lr, r3, r7
 800070c:	6072      	str	r2, [r6, #4]
 800070e:	9a02      	ldr	r2, [sp, #8]
 8000710:	9b03      	ldr	r3, [sp, #12]
 8000712:	f8dd 8010 	ldr.w	r8, [sp, #16]
 8000716:	fbe9 2e67 	umaal	r2, lr, r9, r7
 800071a:	60b2      	str	r2, [r6, #8]
 800071c:	fbeb 3e67 	umaal	r3, lr, fp, r7
 8000720:	60f3      	str	r3, [r6, #12]
 8000722:	fbe4 8e67 	umaal	r8, lr, r4, r7
 8000726:	f8c6 8010 	str.w	r8, [r6, #16]
 800072a:	fbec 1e67 	umaal	r1, lr, ip, r7
 800072e:	6171      	str	r1, [r6, #20]
 8000730:	fbe5 ae67 	umaal	sl, lr, r5, r7
 8000734:	f8c6 a018 	str.w	sl, [r6, #24]
 8000738:	4470      	add	r0, lr
 800073a:	61f0      	str	r0, [r6, #28]
 800073c:	b006      	add	sp, #24
 800073e:	e8bd 9ff0 	ldmia.w	sp!, {r4, r5, r6, r7, r8, r9, sl, fp, ip, pc}
 8000742:	bf00      	nop

08000744 <fe25519_mul_asm>:
 8000744:	e92d 5ff7 	stmdb	sp!, {r0, r1, r2, r4, r5, r6, r7, r8, r9, sl, fp, ip, lr}
 8000748:	b088      	sub	sp, #32
 800074a:	6810      	ldr	r0, [r2, #0]
 800074c:	6853      	ldr	r3, [r2, #4]
 800074e:	6894      	ldr	r4, [r2, #8]
 8000750:	68d5      	ldr	r5, [r2, #12]
 8000752:	6916      	ldr	r6, [r2, #16]
 8000754:	680f      	ldr	r7, [r1, #0]
 8000756:	fba7 8903 	umull	r8, r9, r7, r3
 800075a:	fba7 ab00 	umull	sl, fp, r7, r0
 800075e:	f8cd a000 	str.w	sl, [sp]
 8000762:	ea8a 0a0a 	eor.w	sl, sl, sl
 8000766:	fbaa ce0a 	umull	ip, lr, sl, sl
 800076a:	fbe7 9a04 	umlal	r9, sl, r7, r4
 800076e:	fbe7 ac05 	umlal	sl, ip, r7, r5
 8000772:	fbe7 ce06 	umlal	ip, lr, r7, r6
 8000776:	684f      	ldr	r7, [r1, #4]
 8000778:	fbe7 8b60 	umaal	r8, fp, r7, r0
 800077c:	fbe7 9b63 	umaal	r9, fp, r7, r3
 8000780:	fbe7 ab64 	umaal	sl, fp, r7, r4
 8000784:	fbe7 bc65 	umaal	fp, ip, r7, r5
 8000788:	f8cd 8004 	str.w	r8, [sp, #4]
 800078c:	ea88 0808 	eor.w	r8, r8, r8
 8000790:	fbe7 ce66 	umaal	ip, lr, r7, r6
 8000794:	688f      	ldr	r7, [r1, #8]
 8000796:	fbe7 9800 	umlal	r9, r8, r7, r0
 800079a:	fbe7 8a63 	umaal	r8, sl, r7, r3
 800079e:	fbe7 ab64 	umaal	sl, fp, r7, r4
 80007a2:	fbe7 bc65 	umaal	fp, ip, r7, r5
 80007a6:	f8cd 9008 	str.w	r9, [sp, #8]
 80007aa:	ea89 0909 	eor.w	r9, r9, r9
 80007ae:	fbe7 ce66 	umaal	ip, lr, r7, r6
 80007b2:	68cf      	ldr	r7, [r1, #12]
 80007b4:	fbe7 8900 	umlal	r8, r9, r7, r0
 80007b8:	fbe7 9a63 	umaal	r9, sl, r7, r3
 80007bc:	fbe7 ab64 	umaal	sl, fp, r7, r4
 80007c0:	fbe7 bc65 	umaal	fp, ip, r7, r5
 80007c4:	f8cd 800c 	str.w	r8, [sp, #12]
 80007c8:	ea88 0808 	eor.w	r8, r8, r8
 80007cc:	fbe7 ce66 	umaal	ip, lr, r7, r6
 80007d0:	690f      	ldr	r7, [r1, #16]
 80007d2:	fbe7 9800 	umlal	r9, r8, r7, r0
 80007d6:	fbe7 8a63 	umaal	r8, sl, r7, r3
 80007da:	fbe7 ab64 	umaal	sl, fp, r7, r4
 80007de:	fbe7 bc65 	umaal	fp, ip, r7, r5
 80007e2:	f8cd 9010 	str.w	r9, [sp, #16]
 80007e6:	ea89 0909 	eor.w	r9, r9, r9
 80007ea:	fbe7 ce66 	umaal	ip, lr, r7, r6
 80007ee:	694a      	ldr	r2, [r1, #20]
 80007f0:	fbe2 8900 	umlal	r8, r9, r2, r0
 80007f4:	fbe2 9a63 	umaal	r9, sl, r2, r3
 80007f8:	fbe2 ab64 	umaal	sl, fp, r2, r4
 80007fc:	698a      	ldr	r2, [r1, #24]
 80007fe:	ea87 0707 	eor.w	r7, r7, r7
 8000802:	fbe2 9700 	umlal	r9, r7, r2, r0
 8000806:	fbe2 7a63 	umaal	r7, sl, r2, r3
 800080a:	fbe2 ab64 	umaal	sl, fp, r2, r4
 800080e:	69ca      	ldr	r2, [r1, #28]
 8000810:	fbe2 ac63 	umaal	sl, ip, r2, r3
 8000814:	fbe2 bc64 	umaal	fp, ip, r2, r4
 8000818:	980a      	ldr	r0, [sp, #40]	; 0x28
 800081a:	6943      	ldr	r3, [r0, #20]
 800081c:	6984      	ldr	r4, [r0, #24]
 800081e:	680d      	ldr	r5, [r1, #0]
 8000820:	ea86 0606 	eor.w	r6, r6, r6
 8000824:	fbe5 8603 	umlal	r8, r6, r5, r3
 8000828:	fbe5 6964 	umaal	r6, r9, r5, r4
 800082c:	f8cd 8014 	str.w	r8, [sp, #20]
 8000830:	f8d0 801c 	ldr.w	r8, [r0, #28]
 8000834:	fbe5 7968 	umaal	r7, r9, r5, r8
 8000838:	684d      	ldr	r5, [r1, #4]
 800083a:	ea82 0202 	eor.w	r2, r2, r2
 800083e:	fbe5 6203 	umlal	r6, r2, r5, r3
 8000842:	9606      	str	r6, [sp, #24]
 8000844:	fbe5 2764 	umaal	r2, r7, r5, r4
 8000848:	fbe5 7968 	umaal	r7, r9, r5, r8
 800084c:	688d      	ldr	r5, [r1, #8]
 800084e:	ea86 0606 	eor.w	r6, r6, r6
 8000852:	fbe5 2603 	umlal	r2, r6, r5, r3
 8000856:	fbe5 6764 	umaal	r6, r7, r5, r4
 800085a:	fbe5 7968 	umaal	r7, r9, r5, r8
 800085e:	68cd      	ldr	r5, [r1, #12]
 8000860:	fbe5 6a63 	umaal	r6, sl, r5, r3
 8000864:	fbe5 7a64 	umaal	r7, sl, r5, r4
 8000868:	fbe5 9a68 	umaal	r9, sl, r5, r8
 800086c:	690d      	ldr	r5, [r1, #16]
 800086e:	fbe5 7b63 	umaal	r7, fp, r5, r3
 8000872:	fbe5 9b64 	umaal	r9, fp, r5, r4
 8000876:	fbe5 ab68 	umaal	sl, fp, r5, r8
 800087a:	69cd      	ldr	r5, [r1, #28]
 800087c:	6803      	ldr	r3, [r0, #0]
 800087e:	ea84 0404 	eor.w	r4, r4, r4
 8000882:	fbe5 2403 	umlal	r2, r4, r5, r3
 8000886:	9207      	str	r2, [sp, #28]
 8000888:	698a      	ldr	r2, [r1, #24]
 800088a:	694b      	ldr	r3, [r1, #20]
 800088c:	68c1      	ldr	r1, [r0, #12]
 800088e:	fbe3 4661 	umaal	r4, r6, r3, r1
 8000892:	fbe2 6761 	umaal	r6, r7, r2, r1
 8000896:	fbe5 7961 	umaal	r7, r9, r5, r1
 800089a:	6901      	ldr	r1, [r0, #16]
 800089c:	fbe3 6e61 	umaal	r6, lr, r3, r1
 80008a0:	fbe2 7c61 	umaal	r7, ip, r2, r1
 80008a4:	fbe5 9a61 	umaal	r9, sl, r5, r1
 80008a8:	6941      	ldr	r1, [r0, #20]
 80008aa:	fbe3 7e61 	umaal	r7, lr, r3, r1
 80008ae:	fbe2 9c61 	umaal	r9, ip, r2, r1
 80008b2:	fbe5 ab61 	umaal	sl, fp, r5, r1
 80008b6:	6981      	ldr	r1, [r0, #24]
 80008b8:	fbe3 9e61 	umaal	r9, lr, r3, r1
 80008bc:	fbe2 ac61 	umaal	sl, ip, r2, r1
 80008c0:	fbe5 bc61 	umaal	fp, ip, r5, r1
 80008c4:	fbe3 ae68 	umaal	sl, lr, r3, r8
 80008c8:	fbe2 be68 	umaal	fp, lr, r2, r8
 80008cc:	fbe5 ce68 	umaal	ip, lr, r5, r8
 80008d0:	9807      	ldr	r0, [sp, #28]
 80008d2:	9900      	ldr	r1, [sp, #0]
 80008d4:	9a01      	ldr	r2, [sp, #4]
 80008d6:	f04f 0326 	mov.w	r3, #38	; 0x26
 80008da:	ea85 0505 	eor.w	r5, r5, r5
 80008de:	fbee 0503 	umlal	r0, r5, lr, r3
 80008e2:	f04f 0813 	mov.w	r8, #19
 80008e6:	ea4f 7ed0 	mov.w	lr, r0, lsr #31
 80008ea:	fb0e f808 	mul.w	r8, lr, r8
 80008ee:	ea4f 0040 	mov.w	r0, r0, lsl #1
 80008f2:	ea4f 0050 	mov.w	r0, r0, lsr #1
 80008f6:	fbe4 1863 	umaal	r1, r8, r4, r3
 80008fa:	ea84 0404 	eor.w	r4, r4, r4
 80008fe:	fbe5 1403 	umlal	r1, r4, r5, r3
 8000902:	4422      	add	r2, r4
 8000904:	fbe6 2863 	umaal	r2, r8, r6, r3
 8000908:	9c02      	ldr	r4, [sp, #8]
 800090a:	9d03      	ldr	r5, [sp, #12]
 800090c:	9e04      	ldr	r6, [sp, #16]
 800090e:	f8dd e014 	ldr.w	lr, [sp, #20]
 8000912:	fbe7 4863 	umaal	r4, r8, r7, r3
 8000916:	fbe9 5863 	umaal	r5, r8, r9, r3
 800091a:	fbea 6863 	umaal	r6, r8, sl, r3
 800091e:	fbeb 8e63 	umaal	r8, lr, fp, r3
 8000922:	9f06      	ldr	r7, [sp, #24]
 8000924:	f8dd 9020 	ldr.w	r9, [sp, #32]
 8000928:	fbec 7e63 	umaal	r7, lr, ip, r3
 800092c:	4470      	add	r0, lr
 800092e:	f8c9 001c 	str.w	r0, [r9, #28]
 8000932:	f8c9 7018 	str.w	r7, [r9, #24]
 8000936:	f8c9 8014 	str.w	r8, [r9, #20]
 800093a:	f8c9 6010 	str.w	r6, [r9, #16]
 800093e:	f8c9 500c 	str.w	r5, [r9, #12]
 8000942:	f8c9 4008 	str.w	r4, [r9, #8]
 8000946:	f8c9 2004 	str.w	r2, [r9, #4]
 800094a:	f8c9 1000 	str.w	r1, [r9]
 800094e:	b00b      	add	sp, #44	; 0x2c
 8000950:	e8bd 9ff0 	ldmia.w	sp!, {r4, r5, r6, r7, r8, r9, sl, fp, ip, pc}

08000954 <multiply256x256_asm>:
 8000954:	e92d 5ff7 	stmdb	sp!, {r0, r1, r2, r4, r5, r6, r7, r8, r9, sl, fp, ip, lr}
 8000958:	6813      	ldr	r3, [r2, #0]
 800095a:	6854      	ldr	r4, [r2, #4]
 800095c:	6895      	ldr	r5, [r2, #8]
 800095e:	68d6      	ldr	r6, [r2, #12]
 8000960:	6917      	ldr	r7, [r2, #16]
 8000962:	680a      	ldr	r2, [r1, #0]
 8000964:	ea88 0808 	eor.w	r8, r8, r8
 8000968:	fba8 9a08 	umull	r9, sl, r8, r8
 800096c:	ea8b 0b0b 	eor.w	fp, fp, fp
 8000970:	fba2 ce03 	umull	ip, lr, r2, r3
 8000974:	fbe2 e804 	umlal	lr, r8, r2, r4
 8000978:	fbe2 8905 	umlal	r8, r9, r2, r5
 800097c:	fbe2 9a06 	umlal	r9, sl, r2, r6
 8000980:	f8c0 c000 	str.w	ip, [r0]
 8000984:	ea8c 0c0c 	eor.w	ip, ip, ip
 8000988:	fbe2 ab07 	umlal	sl, fp, r2, r7
 800098c:	684a      	ldr	r2, [r1, #4]
 800098e:	fbe2 ec03 	umlal	lr, ip, r2, r3
 8000992:	fbe2 8c64 	umaal	r8, ip, r2, r4
 8000996:	fbe2 9c65 	umaal	r9, ip, r2, r5
 800099a:	fbe2 ac66 	umaal	sl, ip, r2, r6
 800099e:	f8c0 e004 	str.w	lr, [r0, #4]
 80009a2:	ea8e 0e0e 	eor.w	lr, lr, lr
 80009a6:	fbe2 bc67 	umaal	fp, ip, r2, r7
 80009aa:	688a      	ldr	r2, [r1, #8]
 80009ac:	fbe2 8e03 	umlal	r8, lr, r2, r3
 80009b0:	fbe2 9e64 	umaal	r9, lr, r2, r4
 80009b4:	fbe2 ae65 	umaal	sl, lr, r2, r5
 80009b8:	fbe2 be66 	umaal	fp, lr, r2, r6
 80009bc:	f8c0 8008 	str.w	r8, [r0, #8]
 80009c0:	ea88 0808 	eor.w	r8, r8, r8
 80009c4:	fbe2 ce67 	umaal	ip, lr, r2, r7
 80009c8:	68ca      	ldr	r2, [r1, #12]
 80009ca:	fbe2 9803 	umlal	r9, r8, r2, r3
 80009ce:	fbe2 8a64 	umaal	r8, sl, r2, r4
 80009d2:	fbe2 ab65 	umaal	sl, fp, r2, r5
 80009d6:	fbe2 bc66 	umaal	fp, ip, r2, r6
 80009da:	f8c0 900c 	str.w	r9, [r0, #12]
 80009de:	ea89 0909 	eor.w	r9, r9, r9
 80009e2:	fbe2 ce67 	umaal	ip, lr, r2, r7
 80009e6:	690a      	ldr	r2, [r1, #16]
 80009e8:	fbe2 8903 	umlal	r8, r9, r2, r3
 80009ec:	fbe2 9a64 	umaal	r9, sl, r2, r4
 80009f0:	fbe2 ab65 	umaal	sl, fp, r2, r5
 80009f4:	fbe2 bc66 	umaal	fp, ip, r2, r6
 80009f8:	f8c0 8010 	str.w	r8, [r0, #16]
 80009fc:	ea88 0808 	eor.w	r8, r8, r8
 8000a00:	fbe2 ce67 	umaal	ip, lr, r2, r7
 8000a04:	694a      	ldr	r2, [r1, #20]
 8000a06:	fbe2 9803 	umlal	r9, r8, r2, r3
 8000a0a:	fbe2 8a64 	umaal	r8, sl, r2, r4
 8000a0e:	9a02      	ldr	r2, [sp, #8]
 8000a10:	6953      	ldr	r3, [r2, #20]
 8000a12:	6994      	ldr	r4, [r2, #24]
 8000a14:	680d      	ldr	r5, [r1, #0]
 8000a16:	ea86 0606 	eor.w	r6, r6, r6
 8000a1a:	fbe5 9603 	umlal	r9, r6, r5, r3
 8000a1e:	fbe5 6864 	umaal	r6, r8, r5, r4
 8000a22:	f8c0 9014 	str.w	r9, [r0, #20]
 8000a26:	ea87 0707 	eor.w	r7, r7, r7
 8000a2a:	f8d2 901c 	ldr.w	r9, [r2, #28]
 8000a2e:	fbe5 8a69 	umaal	r8, sl, r5, r9
 8000a32:	684d      	ldr	r5, [r1, #4]
 8000a34:	fbe5 6703 	umlal	r6, r7, r5, r3
 8000a38:	fbe5 7864 	umaal	r7, r8, r5, r4
 8000a3c:	fbe5 8a69 	umaal	r8, sl, r5, r9
 8000a40:	688d      	ldr	r5, [r1, #8]
 8000a42:	fbe5 7b63 	umaal	r7, fp, r5, r3
 8000a46:	fbe5 8b64 	umaal	r8, fp, r5, r4
 8000a4a:	fbe5 ab69 	umaal	sl, fp, r5, r9
 8000a4e:	68cd      	ldr	r5, [r1, #12]
 8000a50:	fbe5 8c63 	umaal	r8, ip, r5, r3
 8000a54:	fbe5 ac64 	umaal	sl, ip, r5, r4
 8000a58:	fbe5 bc69 	umaal	fp, ip, r5, r9
 8000a5c:	690d      	ldr	r5, [r1, #16]
 8000a5e:	fbe5 ae63 	umaal	sl, lr, r5, r3
 8000a62:	fbe5 be64 	umaal	fp, lr, r5, r4
 8000a66:	fbe5 ce69 	umaal	ip, lr, r5, r9
 8000a6a:	698d      	ldr	r5, [r1, #24]
 8000a6c:	6813      	ldr	r3, [r2, #0]
 8000a6e:	6854      	ldr	r4, [r2, #4]
 8000a70:	ea89 0909 	eor.w	r9, r9, r9
 8000a74:	fbe5 6903 	umlal	r6, r9, r5, r3
 8000a78:	fbe5 7964 	umaal	r7, r9, r5, r4
 8000a7c:	6186      	str	r6, [r0, #24]
 8000a7e:	6896      	ldr	r6, [r2, #8]
 8000a80:	fbe5 8966 	umaal	r8, r9, r5, r6
 8000a84:	694d      	ldr	r5, [r1, #20]
 8000a86:	ea82 0202 	eor.w	r2, r2, r2
 8000a8a:	fbe5 7206 	umlal	r7, r2, r5, r6
 8000a8e:	69cd      	ldr	r5, [r1, #28]
 8000a90:	ea81 0101 	eor.w	r1, r1, r1
 8000a94:	fbe5 7103 	umlal	r7, r1, r5, r3
 8000a98:	61c7      	str	r7, [r0, #28]
 8000a9a:	fbe5 1264 	umaal	r1, r2, r5, r4
 8000a9e:	fbe5 2966 	umaal	r2, r9, r5, r6
 8000aa2:	9b01      	ldr	r3, [sp, #4]
 8000aa4:	695c      	ldr	r4, [r3, #20]
 8000aa6:	699e      	ldr	r6, [r3, #24]
 8000aa8:	9b02      	ldr	r3, [sp, #8]
 8000aaa:	68df      	ldr	r7, [r3, #12]
 8000aac:	fbe4 1867 	umaal	r1, r8, r4, r7
 8000ab0:	6201      	str	r1, [r0, #32]
 8000ab2:	fbe6 2867 	umaal	r2, r8, r6, r7
 8000ab6:	fbe5 8967 	umaal	r8, r9, r5, r7
 8000aba:	6919      	ldr	r1, [r3, #16]
 8000abc:	fbe4 2a61 	umaal	r2, sl, r4, r1
 8000ac0:	fbe6 8a61 	umaal	r8, sl, r6, r1
 8000ac4:	fbe5 9a61 	umaal	r9, sl, r5, r1
 8000ac8:	6959      	ldr	r1, [r3, #20]
 8000aca:	fbe4 8b61 	umaal	r8, fp, r4, r1
 8000ace:	fbe6 9b61 	umaal	r9, fp, r6, r1
 8000ad2:	fbe5 ab61 	umaal	sl, fp, r5, r1
 8000ad6:	6999      	ldr	r1, [r3, #24]
 8000ad8:	fbe4 9c61 	umaal	r9, ip, r4, r1
 8000adc:	fbe6 ac61 	umaal	sl, ip, r6, r1
 8000ae0:	fbe5 bc61 	umaal	fp, ip, r5, r1
 8000ae4:	69d9      	ldr	r1, [r3, #28]
 8000ae6:	fbe4 ae61 	umaal	sl, lr, r4, r1
 8000aea:	fbe6 be61 	umaal	fp, lr, r6, r1
 8000aee:	fbe5 ce61 	umaal	ip, lr, r5, r1
 8000af2:	6242      	str	r2, [r0, #36]	; 0x24
 8000af4:	f8c0 8028 	str.w	r8, [r0, #40]	; 0x28
 8000af8:	f8c0 902c 	str.w	r9, [r0, #44]	; 0x2c
 8000afc:	f8c0 a030 	str.w	sl, [r0, #48]	; 0x30
 8000b00:	f8c0 b034 	str.w	fp, [r0, #52]	; 0x34
 8000b04:	f8c0 c038 	str.w	ip, [r0, #56]	; 0x38
 8000b08:	f8c0 e03c 	str.w	lr, [r0, #60]	; 0x3c
 8000b0c:	b003      	add	sp, #12
 8000b0e:	e8bd 9ff0 	ldmia.w	sp!, {r4, r5, r6, r7, r8, r9, sl, fp, ip, pc}
 8000b12:	bf00      	nop

08000b14 <randombytes>:
 8000b14:	e92d 4bf0 	stmdb	sp!, {r4, r5, r6, r7, r8, r9, fp, lr}
 8000b18:	2b00      	cmp	r3, #0
 8000b1a:	bf08      	it	eq
 8000b1c:	2a05      	cmpeq	r2, #5
 8000b1e:	b082      	sub	sp, #8
 8000b20:	4616      	mov	r6, r2
 8000b22:	461f      	mov	r7, r3
 8000b24:	4681      	mov	r9, r0
 8000b26:	d33c      	bcc.n	8000ba2 <randombytes+0x8e>
 8000b28:	f100 0804 	add.w	r8, r0, #4
 8000b2c:	4614      	mov	r4, r2
 8000b2e:	461d      	mov	r5, r3
 8000b30:	f002 fb28 	bl	8003184 <rng_get_random_blocking>
 8000b34:	3c04      	subs	r4, #4
 8000b36:	f145 35ff 	adc.w	r5, r5, #4294967295	; 0xffffffff
 8000b3a:	2d00      	cmp	r5, #0
 8000b3c:	f3c0 2107 	ubfx	r1, r0, #8, #8
 8000b40:	f3c0 4207 	ubfx	r2, r0, #16, #8
 8000b44:	f3c0 6307 	ubfx	r3, r0, #24, #8
 8000b48:	bf08      	it	eq
 8000b4a:	2c05      	cmpeq	r4, #5
 8000b4c:	f808 0c04 	strb.w	r0, [r8, #-4]
 8000b50:	f808 1c03 	strb.w	r1, [r8, #-3]
 8000b54:	f808 2c02 	strb.w	r2, [r8, #-2]
 8000b58:	f808 3c01 	strb.w	r3, [r8, #-1]
 8000b5c:	f108 0804 	add.w	r8, r8, #4
 8000b60:	d2e6      	bcs.n	8000b30 <randombytes+0x1c>
 8000b62:	1f71      	subs	r1, r6, #5
 8000b64:	ea4f 0b91 	mov.w	fp, r1, lsr #2
 8000b68:	f147 31ff 	adc.w	r1, r7, #4294967295	; 0xffffffff
 8000b6c:	ea4b 7b81 	orr.w	fp, fp, r1, lsl #30
 8000b70:	1f34      	subs	r4, r6, #4
 8000b72:	f1db 0000 	rsbs	r0, fp, #0
 8000b76:	0083      	lsls	r3, r0, #2
 8000b78:	f10b 0201 	add.w	r2, fp, #1
 8000b7c:	eb09 0982 	add.w	r9, r9, r2, lsl #2
 8000b80:	191e      	adds	r6, r3, r4
 8000b82:	f002 faff 	bl	8003184 <rng_get_random_blocking>
 8000b86:	ab02      	add	r3, sp, #8
 8000b88:	4433      	add	r3, r6
 8000b8a:	9001      	str	r0, [sp, #4]
 8000b8c:	444e      	add	r6, r9
 8000b8e:	3b05      	subs	r3, #5
 8000b90:	f813 2901 	ldrb.w	r2, [r3], #-1
 8000b94:	f809 2b01 	strb.w	r2, [r9], #1
 8000b98:	45b1      	cmp	r9, r6
 8000b9a:	d1f9      	bne.n	8000b90 <randombytes+0x7c>
 8000b9c:	b002      	add	sp, #8
 8000b9e:	e8bd 8bf0 	ldmia.w	sp!, {r4, r5, r6, r7, r8, r9, fp, pc}
 8000ba2:	ea56 0307 	orrs.w	r3, r6, r7
 8000ba6:	d1ec      	bne.n	8000b82 <randombytes+0x6e>
 8000ba8:	b002      	add	sp, #8
 8000baa:	e8bd 8bf0 	ldmia.w	sp!, {r4, r5, r6, r7, r8, r9, fp, pc}
 8000bae:	bf00      	nop

08000bb0 <crypto_scalarmult_curve25519>:
 8000bb0:	e92d 47f0 	stmdb	sp!, {r4, r5, r6, r7, r8, r9, sl, lr}
 8000bb4:	b0ce      	sub	sp, #312	; 0x138
 8000bb6:	4607      	mov	r7, r0
 8000bb8:	ab44      	add	r3, sp, #272	; 0x110
 8000bba:	1e48      	subs	r0, r1, #1
 8000bbc:	ad4c      	add	r5, sp, #304	; 0x130
 8000bbe:	4611      	mov	r1, r2
 8000bc0:	f810 4f01 	ldrb.w	r4, [r0, #1]!
 8000bc4:	f803 4b01 	strb.w	r4, [r3], #1
 8000bc8:	429d      	cmp	r5, r3
 8000bca:	d1f9      	bne.n	8000bc0 <crypto_scalarmult_curve25519+0x10>
 8000bcc:	f89d 312f 	ldrb.w	r3, [sp, #303]	; 0x12f
 8000bd0:	f89d 0110 	ldrb.w	r0, [sp, #272]	; 0x110
 8000bd4:	f8df 86b0 	ldr.w	r8, [pc, #1712]	; 8001288 <crypto_scalarmult_curve25519+0x6d8>
 8000bd8:	ae14      	add	r6, sp, #80	; 0x50
 8000bda:	f003 037f 	and.w	r3, r3, #127	; 0x7f
 8000bde:	f020 0207 	bic.w	r2, r0, #7
 8000be2:	f043 0340 	orr.w	r3, r3, #64	; 0x40
 8000be6:	4630      	mov	r0, r6
 8000be8:	f88d 312f 	strb.w	r3, [sp, #303]	; 0x12f
 8000bec:	f88d 2110 	strb.w	r2, [sp, #272]	; 0x110
 8000bf0:	f000 fb52 	bl	8001298 <fe25519_unpack>
 8000bf4:	a834      	add	r0, sp, #208	; 0xd0
 8000bf6:	f000 fb8f 	bl	8001318 <fe25519_setone>
 8000bfa:	4631      	mov	r1, r6
 8000bfc:	a82c      	add	r0, sp, #176	; 0xb0
 8000bfe:	f000 fb5d 	bl	80012bc <fe25519_cpy>
 8000c02:	a81c      	add	r0, sp, #112	; 0x70
 8000c04:	f000 fb88 	bl	8001318 <fe25519_setone>
 8000c08:	a824      	add	r0, sp, #144	; 0x90
 8000c0a:	f000 fb7b 	bl	8001304 <fe25519_setzero>
 8000c0e:	23fe      	movs	r3, #254	; 0xfe
 8000c10:	2200      	movs	r2, #0
 8000c12:	934c      	str	r3, [sp, #304]	; 0x130
 8000c14:	4614      	mov	r4, r2
 8000c16:	2501      	movs	r5, #1
 8000c18:	a84e      	add	r0, sp, #312	; 0x138
 8000c1a:	f3c3 01c7 	ubfx	r1, r3, #3, #8
 8000c1e:	4401      	add	r1, r0
 8000c20:	f003 0307 	and.w	r3, r3, #7
 8000c24:	f811 1c28 	ldrb.w	r1, [r1, #-40]
 8000c28:	fa41 f303 	asr.w	r3, r1, r3
 8000c2c:	f003 0301 	and.w	r3, r3, #1
 8000c30:	405a      	eors	r2, r3
 8000c32:	a92c      	add	r1, sp, #176	; 0xb0
 8000c34:	a81c      	add	r0, sp, #112	; 0x70
 8000c36:	f88d 3134 	strb.w	r3, [sp, #308]	; 0x134
 8000c3a:	9203      	str	r2, [sp, #12]
 8000c3c:	f000 fb4c 	bl	80012d8 <fe25519_cswap>
 8000c40:	9a03      	ldr	r2, [sp, #12]
 8000c42:	a934      	add	r1, sp, #208	; 0xd0
 8000c44:	a824      	add	r0, sp, #144	; 0x90
 8000c46:	f000 fb47 	bl	80012d8 <fe25519_cswap>
 8000c4a:	ab04      	add	r3, sp, #16
 8000c4c:	aa1c      	add	r2, sp, #112	; 0x70
 8000c4e:	a924      	add	r1, sp, #144	; 0x90
 8000c50:	4628      	mov	r0, r5
 8000c52:	f8d2 e01c 	ldr.w	lr, [r2, #28]
 8000c56:	f8d1 c01c 	ldr.w	ip, [r1, #28]
 8000c5a:	46e1      	mov	r9, ip
 8000c5c:	fbee e960 	umaal	lr, r9, lr, r0
 8000c60:	fbec e900 	umlal	lr, r9, ip, r0
 8000c64:	f04f 0c13 	mov.w	ip, #19
 8000c68:	fb09 fc0c 	mul.w	ip, r9, ip
 8000c6c:	f8d2 9000 	ldr.w	r9, [r2]
 8000c70:	f8d1 a000 	ldr.w	sl, [r1]
 8000c74:	fbe0 9a6c 	umaal	r9, sl, r0, ip
 8000c78:	f8c3 9000 	str.w	r9, [r3]
 8000c7c:	f8d2 c004 	ldr.w	ip, [r2, #4]
 8000c80:	f8d1 9004 	ldr.w	r9, [r1, #4]
 8000c84:	fbe0 9a6c 	umaal	r9, sl, r0, ip
 8000c88:	f8c3 9004 	str.w	r9, [r3, #4]
 8000c8c:	f8d2 c008 	ldr.w	ip, [r2, #8]
 8000c90:	f8d1 9008 	ldr.w	r9, [r1, #8]
 8000c94:	fbe0 9a6c 	umaal	r9, sl, r0, ip
 8000c98:	f8c3 9008 	str.w	r9, [r3, #8]
 8000c9c:	f8d2 c00c 	ldr.w	ip, [r2, #12]
 8000ca0:	f8d1 900c 	ldr.w	r9, [r1, #12]
 8000ca4:	fbe0 9a6c 	umaal	r9, sl, r0, ip
 8000ca8:	f8c3 900c 	str.w	r9, [r3, #12]
 8000cac:	f8d2 c010 	ldr.w	ip, [r2, #16]
 8000cb0:	f8d1 9010 	ldr.w	r9, [r1, #16]
 8000cb4:	fbe0 9a6c 	umaal	r9, sl, r0, ip
 8000cb8:	f8c3 9010 	str.w	r9, [r3, #16]
 8000cbc:	f8d2 c014 	ldr.w	ip, [r2, #20]
 8000cc0:	f8d1 9014 	ldr.w	r9, [r1, #20]
 8000cc4:	fbe0 9a6c 	umaal	r9, sl, r0, ip
 8000cc8:	f8c3 9014 	str.w	r9, [r3, #20]
 8000ccc:	f8d2 c018 	ldr.w	ip, [r2, #24]
 8000cd0:	f8d1 9018 	ldr.w	r9, [r1, #24]
 8000cd4:	fbe0 9a6c 	umaal	r9, sl, r0, ip
 8000cd8:	f8c3 9018 	str.w	r9, [r3, #24]
 8000cdc:	eb0a 0a5e 	add.w	sl, sl, lr, lsr #1
 8000ce0:	f8c3 a01c 	str.w	sl, [r3, #28]
 8000ce4:	ab0c      	add	r3, sp, #48	; 0x30
 8000ce6:	aa1c      	add	r2, sp, #112	; 0x70
 8000ce8:	a924      	add	r1, sp, #144	; 0x90
 8000cea:	4620      	mov	r0, r4
 8000cec:	f8d2 c01c 	ldr.w	ip, [r2, #28]
 8000cf0:	f8d1 e01c 	ldr.w	lr, [r1, #28]
 8000cf4:	ebbc 0c0e 	subs.w	ip, ip, lr
 8000cf8:	eb7e 0e0e 	sbcs.w	lr, lr, lr
 8000cfc:	eb1c 090c 	adds.w	r9, ip, ip
 8000d00:	eb5e 0e0e 	adcs.w	lr, lr, lr
 8000d04:	f04c 4c00 	orr.w	ip, ip, #2147483648	; 0x80000000
 8000d08:	f8c3 c01c 	str.w	ip, [r3, #28]
 8000d0c:	f1ae 0c01 	sub.w	ip, lr, #1
 8000d10:	f06f 0e12 	mvn.w	lr, #18
 8000d14:	fb0c fc0e 	mul.w	ip, ip, lr
 8000d18:	f8d1 e000 	ldr.w	lr, [r1]
 8000d1c:	f8d2 9000 	ldr.w	r9, [r2]
 8000d20:	fbe0 ec60 	umaal	lr, ip, r0, r0
 8000d24:	ebb9 090e 	subs.w	r9, r9, lr
 8000d28:	f8c3 9000 	str.w	r9, [r3]
 8000d2c:	f8d1 e004 	ldr.w	lr, [r1, #4]
 8000d30:	f8d2 9004 	ldr.w	r9, [r2, #4]
 8000d34:	fbe0 ec60 	umaal	lr, ip, r0, r0
 8000d38:	eb79 090e 	sbcs.w	r9, r9, lr
 8000d3c:	f8c3 9004 	str.w	r9, [r3, #4]
 8000d40:	f8d1 e008 	ldr.w	lr, [r1, #8]
 8000d44:	f8d2 9008 	ldr.w	r9, [r2, #8]
 8000d48:	fbe0 ec60 	umaal	lr, ip, r0, r0
 8000d4c:	eb79 090e 	sbcs.w	r9, r9, lr
 8000d50:	f8c3 9008 	str.w	r9, [r3, #8]
 8000d54:	f8d1 e00c 	ldr.w	lr, [r1, #12]
 8000d58:	f8d2 900c 	ldr.w	r9, [r2, #12]
 8000d5c:	fbe0 ec60 	umaal	lr, ip, r0, r0
 8000d60:	eb79 090e 	sbcs.w	r9, r9, lr
 8000d64:	f8c3 900c 	str.w	r9, [r3, #12]
 8000d68:	f8d1 e010 	ldr.w	lr, [r1, #16]
 8000d6c:	f8d2 9010 	ldr.w	r9, [r2, #16]
 8000d70:	fbe0 ec60 	umaal	lr, ip, r0, r0
 8000d74:	eb79 090e 	sbcs.w	r9, r9, lr
 8000d78:	f8c3 9010 	str.w	r9, [r3, #16]
 8000d7c:	f8d1 e014 	ldr.w	lr, [r1, #20]
 8000d80:	f8d2 9014 	ldr.w	r9, [r2, #20]
 8000d84:	fbe0 ec60 	umaal	lr, ip, r0, r0
 8000d88:	eb79 090e 	sbcs.w	r9, r9, lr
 8000d8c:	f8c3 9014 	str.w	r9, [r3, #20]
 8000d90:	f8d1 e018 	ldr.w	lr, [r1, #24]
 8000d94:	f8d2 9018 	ldr.w	r9, [r2, #24]
 8000d98:	fbe0 ec60 	umaal	lr, ip, r0, r0
 8000d9c:	eb79 090e 	sbcs.w	r9, r9, lr
 8000da0:	f8c3 9018 	str.w	r9, [r3, #24]
 8000da4:	f8d3 901c 	ldr.w	r9, [r3, #28]
 8000da8:	eb79 090c 	sbcs.w	r9, r9, ip
 8000dac:	f8c3 901c 	str.w	r9, [r3, #28]
 8000db0:	ab1c      	add	r3, sp, #112	; 0x70
 8000db2:	aa2c      	add	r2, sp, #176	; 0xb0
 8000db4:	a934      	add	r1, sp, #208	; 0xd0
 8000db6:	4628      	mov	r0, r5
 8000db8:	f8d2 e01c 	ldr.w	lr, [r2, #28]
 8000dbc:	f8d1 c01c 	ldr.w	ip, [r1, #28]
 8000dc0:	46e1      	mov	r9, ip
 8000dc2:	fbee e960 	umaal	lr, r9, lr, r0
 8000dc6:	fbec e900 	umlal	lr, r9, ip, r0
 8000dca:	f04f 0c13 	mov.w	ip, #19
 8000dce:	fb09 fc0c 	mul.w	ip, r9, ip
 8000dd2:	f8d2 9000 	ldr.w	r9, [r2]
 8000dd6:	f8d1 a000 	ldr.w	sl, [r1]
 8000dda:	fbe0 9a6c 	umaal	r9, sl, r0, ip
 8000dde:	f8c3 9000 	str.w	r9, [r3]
 8000de2:	f8d2 c004 	ldr.w	ip, [r2, #4]
 8000de6:	f8d1 9004 	ldr.w	r9, [r1, #4]
 8000dea:	fbe0 9a6c 	umaal	r9, sl, r0, ip
 8000dee:	f8c3 9004 	str.w	r9, [r3, #4]
 8000df2:	f8d2 c008 	ldr.w	ip, [r2, #8]
 8000df6:	f8d1 9008 	ldr.w	r9, [r1, #8]
 8000dfa:	fbe0 9a6c 	umaal	r9, sl, r0, ip
 8000dfe:	f8c3 9008 	str.w	r9, [r3, #8]
 8000e02:	f8d2 c00c 	ldr.w	ip, [r2, #12]
 8000e06:	f8d1 900c 	ldr.w	r9, [r1, #12]
 8000e0a:	fbe0 9a6c 	umaal	r9, sl, r0, ip
 8000e0e:	f8c3 900c 	str.w	r9, [r3, #12]
 8000e12:	f8d2 c010 	ldr.w	ip, [r2, #16]
 8000e16:	f8d1 9010 	ldr.w	r9, [r1, #16]
 8000e1a:	fbe0 9a6c 	umaal	r9, sl, r0, ip
 8000e1e:	f8c3 9010 	str.w	r9, [r3, #16]
 8000e22:	f8d2 c014 	ldr.w	ip, [r2, #20]
 8000e26:	f8d1 9014 	ldr.w	r9, [r1, #20]
 8000e2a:	fbe0 9a6c 	umaal	r9, sl, r0, ip
 8000e2e:	f8c3 9014 	str.w	r9, [r3, #20]
 8000e32:	f8d2 c018 	ldr.w	ip, [r2, #24]
 8000e36:	f8d1 9018 	ldr.w	r9, [r1, #24]
 8000e3a:	fbe0 9a6c 	umaal	r9, sl, r0, ip
 8000e3e:	f8c3 9018 	str.w	r9, [r3, #24]
 8000e42:	eb0a 0a5e 	add.w	sl, sl, lr, lsr #1
 8000e46:	f8c3 a01c 	str.w	sl, [r3, #28]
 8000e4a:	ab24      	add	r3, sp, #144	; 0x90
 8000e4c:	aa2c      	add	r2, sp, #176	; 0xb0
 8000e4e:	a934      	add	r1, sp, #208	; 0xd0
 8000e50:	4620      	mov	r0, r4
 8000e52:	f8d2 c01c 	ldr.w	ip, [r2, #28]
 8000e56:	f8d1 e01c 	ldr.w	lr, [r1, #28]
 8000e5a:	ebbc 0c0e 	subs.w	ip, ip, lr
 8000e5e:	eb7e 0e0e 	sbcs.w	lr, lr, lr
 8000e62:	eb1c 090c 	adds.w	r9, ip, ip
 8000e66:	eb5e 0e0e 	adcs.w	lr, lr, lr
 8000e6a:	f04c 4c00 	orr.w	ip, ip, #2147483648	; 0x80000000
 8000e6e:	f8c3 c01c 	str.w	ip, [r3, #28]
 8000e72:	f1ae 0c01 	sub.w	ip, lr, #1
 8000e76:	f06f 0e12 	mvn.w	lr, #18
 8000e7a:	fb0c fc0e 	mul.w	ip, ip, lr
 8000e7e:	f8d1 e000 	ldr.w	lr, [r1]
 8000e82:	f8d2 9000 	ldr.w	r9, [r2]
 8000e86:	fbe0 ec60 	umaal	lr, ip, r0, r0
 8000e8a:	ebb9 090e 	subs.w	r9, r9, lr
 8000e8e:	f8c3 9000 	str.w	r9, [r3]
 8000e92:	f8d1 e004 	ldr.w	lr, [r1, #4]
 8000e96:	f8d2 9004 	ldr.w	r9, [r2, #4]
 8000e9a:	fbe0 ec60 	umaal	lr, ip, r0, r0
 8000e9e:	eb79 090e 	sbcs.w	r9, r9, lr
 8000ea2:	f8c3 9004 	str.w	r9, [r3, #4]
 8000ea6:	f8d1 e008 	ldr.w	lr, [r1, #8]
 8000eaa:	f8d2 9008 	ldr.w	r9, [r2, #8]
 8000eae:	fbe0 ec60 	umaal	lr, ip, r0, r0
 8000eb2:	eb79 090e 	sbcs.w	r9, r9, lr
 8000eb6:	f8c3 9008 	str.w	r9, [r3, #8]
 8000eba:	f8d1 e00c 	ldr.w	lr, [r1, #12]
 8000ebe:	f8d2 900c 	ldr.w	r9, [r2, #12]
 8000ec2:	fbe0 ec60 	umaal	lr, ip, r0, r0
 8000ec6:	eb79 090e 	sbcs.w	r9, r9, lr
 8000eca:	f8c3 900c 	str.w	r9, [r3, #12]
 8000ece:	f8d1 e010 	ldr.w	lr, [r1, #16]
 8000ed2:	f8d2 9010 	ldr.w	r9, [r2, #16]
 8000ed6:	fbe0 ec60 	umaal	lr, ip, r0, r0
 8000eda:	eb79 090e 	sbcs.w	r9, r9, lr
 8000ede:	f8c3 9010 	str.w	r9, [r3, #16]
 8000ee2:	f8d1 e014 	ldr.w	lr, [r1, #20]
 8000ee6:	f8d2 9014 	ldr.w	r9, [r2, #20]
 8000eea:	fbe0 ec60 	umaal	lr, ip, r0, r0
 8000eee:	eb79 090e 	sbcs.w	r9, r9, lr
 8000ef2:	f8c3 9014 	str.w	r9, [r3, #20]
 8000ef6:	f8d1 e018 	ldr.w	lr, [r1, #24]
 8000efa:	f8d2 9018 	ldr.w	r9, [r2, #24]
 8000efe:	fbe0 ec60 	umaal	lr, ip, r0, r0
 8000f02:	eb79 090e 	sbcs.w	r9, r9, lr
 8000f06:	f8c3 9018 	str.w	r9, [r3, #24]
 8000f0a:	f8d3 901c 	ldr.w	r9, [r3, #28]
 8000f0e:	eb79 090c 	sbcs.w	r9, r9, ip
 8000f12:	f8c3 901c 	str.w	r9, [r3, #28]
 8000f16:	aa04      	add	r2, sp, #16
 8000f18:	a924      	add	r1, sp, #144	; 0x90
 8000f1a:	a82c      	add	r0, sp, #176	; 0xb0
 8000f1c:	f7ff fc12 	bl	8000744 <fe25519_mul_asm>
 8000f20:	aa0c      	add	r2, sp, #48	; 0x30
 8000f22:	a91c      	add	r1, sp, #112	; 0x70
 8000f24:	a824      	add	r0, sp, #144	; 0x90
 8000f26:	f7ff fc0d 	bl	8000744 <fe25519_mul_asm>
 8000f2a:	ab1c      	add	r3, sp, #112	; 0x70
 8000f2c:	aa24      	add	r2, sp, #144	; 0x90
 8000f2e:	a92c      	add	r1, sp, #176	; 0xb0
 8000f30:	4628      	mov	r0, r5
 8000f32:	f8d2 e01c 	ldr.w	lr, [r2, #28]
 8000f36:	f8d1 c01c 	ldr.w	ip, [r1, #28]
 8000f3a:	46e1      	mov	r9, ip
 8000f3c:	fbee e960 	umaal	lr, r9, lr, r0
 8000f40:	fbec e900 	umlal	lr, r9, ip, r0
 8000f44:	f04f 0c13 	mov.w	ip, #19
 8000f48:	fb09 fc0c 	mul.w	ip, r9, ip
 8000f4c:	f8d2 9000 	ldr.w	r9, [r2]
 8000f50:	f8d1 a000 	ldr.w	sl, [r1]
 8000f54:	fbe0 9a6c 	umaal	r9, sl, r0, ip
 8000f58:	f8c3 9000 	str.w	r9, [r3]
 8000f5c:	f8d2 c004 	ldr.w	ip, [r2, #4]
 8000f60:	f8d1 9004 	ldr.w	r9, [r1, #4]
 8000f64:	fbe0 9a6c 	umaal	r9, sl, r0, ip
 8000f68:	f8c3 9004 	str.w	r9, [r3, #4]
 8000f6c:	f8d2 c008 	ldr.w	ip, [r2, #8]
 8000f70:	f8d1 9008 	ldr.w	r9, [r1, #8]
 8000f74:	fbe0 9a6c 	umaal	r9, sl, r0, ip
 8000f78:	f8c3 9008 	str.w	r9, [r3, #8]
 8000f7c:	f8d2 c00c 	ldr.w	ip, [r2, #12]
 8000f80:	f8d1 900c 	ldr.w	r9, [r1, #12]
 8000f84:	fbe0 9a6c 	umaal	r9, sl, r0, ip
 8000f88:	f8c3 900c 	str.w	r9, [r3, #12]
 8000f8c:	f8d2 c010 	ldr.w	ip, [r2, #16]
 8000f90:	f8d1 9010 	ldr.w	r9, [r1, #16]
 8000f94:	fbe0 9a6c 	umaal	r9, sl, r0, ip
 8000f98:	f8c3 9010 	str.w	r9, [r3, #16]
 8000f9c:	f8d2 c014 	ldr.w	ip, [r2, #20]
 8000fa0:	f8d1 9014 	ldr.w	r9, [r1, #20]
 8000fa4:	fbe0 9a6c 	umaal	r9, sl, r0, ip
 8000fa8:	f8c3 9014 	str.w	r9, [r3, #20]
 8000fac:	f8d2 c018 	ldr.w	ip, [r2, #24]
 8000fb0:	f8d1 9018 	ldr.w	r9, [r1, #24]
 8000fb4:	fbe0 9a6c 	umaal	r9, sl, r0, ip
 8000fb8:	f8c3 9018 	str.w	r9, [r3, #24]
 8000fbc:	eb0a 0a5e 	add.w	sl, sl, lr, lsr #1
 8000fc0:	f8c3 a01c 	str.w	sl, [r3, #28]
 8000fc4:	ab34      	add	r3, sp, #208	; 0xd0
 8000fc6:	aa2c      	add	r2, sp, #176	; 0xb0
 8000fc8:	a924      	add	r1, sp, #144	; 0x90
 8000fca:	4620      	mov	r0, r4
 8000fcc:	f8d2 c01c 	ldr.w	ip, [r2, #28]
 8000fd0:	f8d1 e01c 	ldr.w	lr, [r1, #28]
 8000fd4:	ebbc 0c0e 	subs.w	ip, ip, lr
 8000fd8:	eb7e 0e0e 	sbcs.w	lr, lr, lr
 8000fdc:	eb1c 090c 	adds.w	r9, ip, ip
 8000fe0:	eb5e 0e0e 	adcs.w	lr, lr, lr
 8000fe4:	f04c 4c00 	orr.w	ip, ip, #2147483648	; 0x80000000
 8000fe8:	f8c3 c01c 	str.w	ip, [r3, #28]
 8000fec:	f1ae 0c01 	sub.w	ip, lr, #1
 8000ff0:	f06f 0e12 	mvn.w	lr, #18
 8000ff4:	fb0c fc0e 	mul.w	ip, ip, lr
 8000ff8:	f8d1 e000 	ldr.w	lr, [r1]
 8000ffc:	f8d2 9000 	ldr.w	r9, [r2]
 8001000:	fbe0 ec60 	umaal	lr, ip, r0, r0
 8001004:	ebb9 090e 	subs.w	r9, r9, lr
 8001008:	f8c3 9000 	str.w	r9, [r3]
 800100c:	f8d1 e004 	ldr.w	lr, [r1, #4]
 8001010:	f8d2 9004 	ldr.w	r9, [r2, #4]
 8001014:	fbe0 ec60 	umaal	lr, ip, r0, r0
 8001018:	eb79 090e 	sbcs.w	r9, r9, lr
 800101c:	f8c3 9004 	str.w	r9, [r3, #4]
 8001020:	f8d1 e008 	ldr.w	lr, [r1, #8]
 8001024:	f8d2 9008 	ldr.w	r9, [r2, #8]
 8001028:	fbe0 ec60 	umaal	lr, ip, r0, r0
 800102c:	eb79 090e 	sbcs.w	r9, r9, lr
 8001030:	f8c3 9008 	str.w	r9, [r3, #8]
 8001034:	f8d1 e00c 	ldr.w	lr, [r1, #12]
 8001038:	f8d2 900c 	ldr.w	r9, [r2, #12]
 800103c:	fbe0 ec60 	umaal	lr, ip, r0, r0
 8001040:	eb79 090e 	sbcs.w	r9, r9, lr
 8001044:	f8c3 900c 	str.w	r9, [r3, #12]
 8001048:	f8d1 e010 	ldr.w	lr, [r1, #16]
 800104c:	f8d2 9010 	ldr.w	r9, [r2, #16]
 8001050:	fbe0 ec60 	umaal	lr, ip, r0, r0
 8001054:	eb79 090e 	sbcs.w	r9, r9, lr
 8001058:	f8c3 9010 	str.w	r9, [r3, #16]
 800105c:	f8d1 e014 	ldr.w	lr, [r1, #20]
 8001060:	f8d2 9014 	ldr.w	r9, [r2, #20]
 8001064:	fbe0 ec60 	umaal	lr, ip, r0, r0
 8001068:	eb79 090e 	sbcs.w	r9, r9, lr
 800106c:	f8c3 9014 	str.w	r9, [r3, #20]
 8001070:	f8d1 e018 	ldr.w	lr, [r1, #24]
 8001074:	f8d2 9018 	ldr.w	r9, [r2, #24]
 8001078:	fbe0 ec60 	umaal	lr, ip, r0, r0
 800107c:	eb79 090e 	sbcs.w	r9, r9, lr
 8001080:	f8c3 9018 	str.w	r9, [r3, #24]
 8001084:	f8d3 901c 	ldr.w	r9, [r3, #28]
 8001088:	eb79 090c 	sbcs.w	r9, r9, ip
 800108c:	f8c3 901c 	str.w	r9, [r3, #28]
 8001090:	a91c      	add	r1, sp, #112	; 0x70
 8001092:	a82c      	add	r0, sp, #176	; 0xb0
 8001094:	f7ff fa88 	bl	80005a8 <fe25519_square_asm>
 8001098:	a934      	add	r1, sp, #208	; 0xd0
 800109a:	a81c      	add	r0, sp, #112	; 0x70
 800109c:	f7ff fa84 	bl	80005a8 <fe25519_square_asm>
 80010a0:	4632      	mov	r2, r6
 80010a2:	a91c      	add	r1, sp, #112	; 0x70
 80010a4:	a834      	add	r0, sp, #208	; 0xd0
 80010a6:	f7ff fb4d 	bl	8000744 <fe25519_mul_asm>
 80010aa:	a904      	add	r1, sp, #16
 80010ac:	a81c      	add	r0, sp, #112	; 0x70
 80010ae:	f7ff fa7b 	bl	80005a8 <fe25519_square_asm>
 80010b2:	a90c      	add	r1, sp, #48	; 0x30
 80010b4:	a804      	add	r0, sp, #16
 80010b6:	f7ff fa77 	bl	80005a8 <fe25519_square_asm>
 80010ba:	ab24      	add	r3, sp, #144	; 0x90
 80010bc:	aa1c      	add	r2, sp, #112	; 0x70
 80010be:	a904      	add	r1, sp, #16
 80010c0:	4620      	mov	r0, r4
 80010c2:	f8d2 c01c 	ldr.w	ip, [r2, #28]
 80010c6:	f8d1 e01c 	ldr.w	lr, [r1, #28]
 80010ca:	ebbc 0c0e 	subs.w	ip, ip, lr
 80010ce:	eb7e 0e0e 	sbcs.w	lr, lr, lr
 80010d2:	eb1c 090c 	adds.w	r9, ip, ip
 80010d6:	eb5e 0e0e 	adcs.w	lr, lr, lr
 80010da:	f04c 4c00 	orr.w	ip, ip, #2147483648	; 0x80000000
 80010de:	f8c3 c01c 	str.w	ip, [r3, #28]
 80010e2:	f1ae 0c01 	sub.w	ip, lr, #1
 80010e6:	f06f 0e12 	mvn.w	lr, #18
 80010ea:	fb0c fc0e 	mul.w	ip, ip, lr
 80010ee:	f8d1 e000 	ldr.w	lr, [r1]
 80010f2:	f8d2 9000 	ldr.w	r9, [r2]
 80010f6:	fbe0 ec60 	umaal	lr, ip, r0, r0
 80010fa:	ebb9 090e 	subs.w	r9, r9, lr
 80010fe:	f8c3 9000 	str.w	r9, [r3]
 8001102:	f8d1 e004 	ldr.w	lr, [r1, #4]
 8001106:	f8d2 9004 	ldr.w	r9, [r2, #4]
 800110a:	fbe0 ec60 	umaal	lr, ip, r0, r0
 800110e:	eb79 090e 	sbcs.w	r9, r9, lr
 8001112:	f8c3 9004 	str.w	r9, [r3, #4]
 8001116:	f8d1 e008 	ldr.w	lr, [r1, #8]
 800111a:	f8d2 9008 	ldr.w	r9, [r2, #8]
 800111e:	fbe0 ec60 	umaal	lr, ip, r0, r0
 8001122:	eb79 090e 	sbcs.w	r9, r9, lr
 8001126:	f8c3 9008 	str.w	r9, [r3, #8]
 800112a:	f8d1 e00c 	ldr.w	lr, [r1, #12]
 800112e:	f8d2 900c 	ldr.w	r9, [r2, #12]
 8001132:	fbe0 ec60 	umaal	lr, ip, r0, r0
 8001136:	eb79 090e 	sbcs.w	r9, r9, lr
 800113a:	f8c3 900c 	str.w	r9, [r3, #12]
 800113e:	f8d1 e010 	ldr.w	lr, [r1, #16]
 8001142:	f8d2 9010 	ldr.w	r9, [r2, #16]
 8001146:	fbe0 ec60 	umaal	lr, ip, r0, r0
 800114a:	eb79 090e 	sbcs.w	r9, r9, lr
 800114e:	f8c3 9010 	str.w	r9, [r3, #16]
 8001152:	f8d1 e014 	ldr.w	lr, [r1, #20]
 8001156:	f8d2 9014 	ldr.w	r9, [r2, #20]
 800115a:	fbe0 ec60 	umaal	lr, ip, r0, r0
 800115e:	eb79 090e 	sbcs.w	r9, r9, lr
 8001162:	f8c3 9014 	str.w	r9, [r3, #20]
 8001166:	f8d1 e018 	ldr.w	lr, [r1, #24]
 800116a:	f8d2 9018 	ldr.w	r9, [r2, #24]
 800116e:	fbe0 ec60 	umaal	lr, ip, r0, r0
 8001172:	eb79 090e 	sbcs.w	r9, r9, lr
 8001176:	f8c3 9018 	str.w	r9, [r3, #24]
 800117a:	f8d3 901c 	ldr.w	r9, [r3, #28]
 800117e:	eb79 090c 	sbcs.w	r9, r9, ip
 8001182:	f8c3 901c 	str.w	r9, [r3, #28]
 8001186:	aa1c      	add	r2, sp, #112	; 0x70
 8001188:	a904      	add	r1, sp, #16
 800118a:	4610      	mov	r0, r2
 800118c:	f7ff fada 	bl	8000744 <fe25519_mul_asm>
 8001190:	ab0c      	add	r3, sp, #48	; 0x30
 8001192:	aa24      	add	r2, sp, #144	; 0x90
 8001194:	a904      	add	r1, sp, #16
 8001196:	4640      	mov	r0, r8
 8001198:	f8d1 c01c 	ldr.w	ip, [r1, #28]
 800119c:	f8d2 901c 	ldr.w	r9, [r2, #28]
 80011a0:	eb00 0a00 	add.w	sl, r0, r0
 80011a4:	46e6      	mov	lr, ip
 80011a6:	fbea ce69 	umaal	ip, lr, sl, r9
 80011aa:	f04f 0913 	mov.w	r9, #19
 80011ae:	fb09 fe0e 	mul.w	lr, r9, lr
 80011b2:	f8d2 a000 	ldr.w	sl, [r2]
 80011b6:	f8d1 9000 	ldr.w	r9, [r1]
 80011ba:	fbe0 9e6a 	umaal	r9, lr, r0, sl
 80011be:	f8c3 9000 	str.w	r9, [r3]
 80011c2:	f8d2 a004 	ldr.w	sl, [r2, #4]
 80011c6:	f8d1 9004 	ldr.w	r9, [r1, #4]
 80011ca:	fbe0 9e6a 	umaal	r9, lr, r0, sl
 80011ce:	f8c3 9004 	str.w	r9, [r3, #4]
 80011d2:	f8d2 a008 	ldr.w	sl, [r2, #8]
 80011d6:	f8d1 9008 	ldr.w	r9, [r1, #8]
 80011da:	fbe0 9e6a 	umaal	r9, lr, r0, sl
 80011de:	f8c3 9008 	str.w	r9, [r3, #8]
 80011e2:	f8d2 a00c 	ldr.w	sl, [r2, #12]
 80011e6:	f8d1 900c 	ldr.w	r9, [r1, #12]
 80011ea:	fbe0 9e6a 	umaal	r9, lr, r0, sl
 80011ee:	f8c3 900c 	str.w	r9, [r3, #12]
 80011f2:	f8d2 a010 	ldr.w	sl, [r2, #16]
 80011f6:	f8d1 9010 	ldr.w	r9, [r1, #16]
 80011fa:	fbe0 9e6a 	umaal	r9, lr, r0, sl
 80011fe:	f8c3 9010 	str.w	r9, [r3, #16]
 8001202:	f8d2 a014 	ldr.w	sl, [r2, #20]
 8001206:	f8d1 9014 	ldr.w	r9, [r1, #20]
 800120a:	fbe0 9e6a 	umaal	r9, lr, r0, sl
 800120e:	f8c3 9014 	str.w	r9, [r3, #20]
 8001212:	f8d2 a018 	ldr.w	sl, [r2, #24]
 8001216:	f8d1 9018 	ldr.w	r9, [r1, #24]
 800121a:	fbe0 9e6a 	umaal	r9, lr, r0, sl
 800121e:	f8c3 9018 	str.w	r9, [r3, #24]
 8001222:	eb0e 0c5c 	add.w	ip, lr, ip, lsr #1
 8001226:	f8c3 c01c 	str.w	ip, [r3, #28]
 800122a:	aa24      	add	r2, sp, #144	; 0x90
 800122c:	4610      	mov	r0, r2
 800122e:	a90c      	add	r1, sp, #48	; 0x30
 8001230:	f7ff fa88 	bl	8000744 <fe25519_mul_asm>
 8001234:	9b4c      	ldr	r3, [sp, #304]	; 0x130
 8001236:	f89d 2134 	ldrb.w	r2, [sp, #308]	; 0x134
 800123a:	3b01      	subs	r3, #1
 800123c:	2b00      	cmp	r3, #0
 800123e:	934c      	str	r3, [sp, #304]	; 0x130
 8001240:	f6bf acea 	bge.w	8000c18 <crypto_scalarmult_curve25519+0x68>
 8001244:	a92c      	add	r1, sp, #176	; 0xb0
 8001246:	a81c      	add	r0, sp, #112	; 0x70
 8001248:	9203      	str	r2, [sp, #12]
 800124a:	f000 f845 	bl	80012d8 <fe25519_cswap>
 800124e:	9a03      	ldr	r2, [sp, #12]
 8001250:	a934      	add	r1, sp, #208	; 0xd0
 8001252:	a824      	add	r0, sp, #144	; 0x90
 8001254:	f000 f840 	bl	80012d8 <fe25519_cswap>
 8001258:	a924      	add	r1, sp, #144	; 0x90
 800125a:	ab34      	add	r3, sp, #208	; 0xd0
 800125c:	aa2c      	add	r2, sp, #176	; 0xb0
 800125e:	4608      	mov	r0, r1
 8001260:	9600      	str	r6, [sp, #0]
 8001262:	f000 fa67 	bl	8001734 <fe25519_invert_useProvidedScratchBuffers>
 8001266:	a91c      	add	r1, sp, #112	; 0x70
 8001268:	aa24      	add	r2, sp, #144	; 0x90
 800126a:	4608      	mov	r0, r1
 800126c:	f7ff fa6a 	bl	8000744 <fe25519_mul_asm>
 8001270:	a81c      	add	r0, sp, #112	; 0x70
 8001272:	f000 f8bb 	bl	80013ec <fe25519_reduceCompletely>
 8001276:	4638      	mov	r0, r7
 8001278:	a91c      	add	r1, sp, #112	; 0x70
 800127a:	f000 f8f1 	bl	8001460 <fe25519_pack>
 800127e:	2000      	movs	r0, #0
 8001280:	b04e      	add	sp, #312	; 0x138
 8001282:	e8bd 87f0 	ldmia.w	sp!, {r4, r5, r6, r7, r8, r9, sl, pc}
 8001286:	bf00      	nop
 8001288:	0001db42 	.word	0x0001db42

0800128c <crypto_scalarmult_base_curve25519>:
 800128c:	4a01      	ldr	r2, [pc, #4]	; (8001294 <crypto_scalarmult_base_curve25519+0x8>)
 800128e:	f7ff bc8f 	b.w	8000bb0 <crypto_scalarmult_curve25519>
 8001292:	bf00      	nop
 8001294:	080033e4 	.word	0x080033e4

08001298 <fe25519_unpack>:
 8001298:	b410      	push	{r4}
 800129a:	1e4b      	subs	r3, r1, #1
 800129c:	f101 041f 	add.w	r4, r1, #31
 80012a0:	1e42      	subs	r2, r0, #1
 80012a2:	f813 1f01 	ldrb.w	r1, [r3, #1]!
 80012a6:	f802 1f01 	strb.w	r1, [r2, #1]!
 80012aa:	42a3      	cmp	r3, r4
 80012ac:	d1f9      	bne.n	80012a2 <fe25519_unpack+0xa>
 80012ae:	7fc3      	ldrb	r3, [r0, #31]
 80012b0:	f85d 4b04 	ldr.w	r4, [sp], #4
 80012b4:	f003 037f 	and.w	r3, r3, #127	; 0x7f
 80012b8:	77c3      	strb	r3, [r0, #31]
 80012ba:	4770      	bx	lr

080012bc <fe25519_cpy>:
 80012bc:	1f0b      	subs	r3, r1, #4
 80012be:	3804      	subs	r0, #4
 80012c0:	311c      	adds	r1, #28
 80012c2:	f853 2f04 	ldr.w	r2, [r3, #4]!
 80012c6:	f840 2f04 	str.w	r2, [r0, #4]!
 80012ca:	428b      	cmp	r3, r1
 80012cc:	d1f9      	bne.n	80012c2 <fe25519_cpy+0x6>
 80012ce:	4770      	bx	lr

080012d0 <fe25519_cmov>:
 80012d0:	b2d2      	uxtb	r2, r2
 80012d2:	f001 bc47 	b.w	8002b64 <conditionalMove_256bitValue>
 80012d6:	bf00      	nop

080012d8 <fe25519_cswap>:
 80012d8:	b470      	push	{r4, r5, r6}
 80012da:	3904      	subs	r1, #4
 80012dc:	4252      	negs	r2, r2
 80012de:	1f04      	subs	r4, r0, #4
 80012e0:	f100 061c 	add.w	r6, r0, #28
 80012e4:	f854 0f04 	ldr.w	r0, [r4, #4]!
 80012e8:	f851 5f04 	ldr.w	r5, [r1, #4]!
 80012ec:	ea80 0305 	eor.w	r3, r0, r5
 80012f0:	4013      	ands	r3, r2
 80012f2:	4058      	eors	r0, r3
 80012f4:	42b4      	cmp	r4, r6
 80012f6:	ea83 0305 	eor.w	r3, r3, r5
 80012fa:	6020      	str	r0, [r4, #0]
 80012fc:	600b      	str	r3, [r1, #0]
 80012fe:	d1f1      	bne.n	80012e4 <fe25519_cswap+0xc>
 8001300:	bc70      	pop	{r4, r5, r6}
 8001302:	4770      	bx	lr

08001304 <fe25519_setzero>:
 8001304:	2300      	movs	r3, #0
 8001306:	e9c0 3300 	strd	r3, r3, [r0]
 800130a:	e9c0 3302 	strd	r3, r3, [r0, #8]
 800130e:	e9c0 3304 	strd	r3, r3, [r0, #16]
 8001312:	e9c0 3306 	strd	r3, r3, [r0, #24]
 8001316:	4770      	bx	lr

08001318 <fe25519_setone>:
 8001318:	2300      	movs	r3, #0
 800131a:	2201      	movs	r2, #1
 800131c:	e9c0 2300 	strd	r2, r3, [r0]
 8001320:	e9c0 3302 	strd	r3, r3, [r0, #8]
 8001324:	e9c0 3304 	strd	r3, r3, [r0, #16]
 8001328:	e9c0 3306 	strd	r3, r3, [r0, #24]
 800132c:	4770      	bx	lr
 800132e:	bf00      	nop

08001330 <fe25519_neg>:
 8001330:	b5f0      	push	{r4, r5, r6, r7, lr}
 8001332:	69cc      	ldr	r4, [r1, #28]
 8001334:	4264      	negs	r4, r4
 8001336:	eb65 0505 	sbc.w	r5, r5, r5
 800133a:	0fe2      	lsrs	r2, r4, #31
 800133c:	ea42 0245 	orr.w	r2, r2, r5, lsl #1
 8001340:	3a01      	subs	r2, #1
 8001342:	eb02 03c2 	add.w	r3, r2, r2, lsl #3
 8001346:	eb02 0243 	add.w	r2, r2, r3, lsl #1
 800134a:	1f0e      	subs	r6, r1, #4
 800134c:	f101 0c18 	add.w	ip, r1, #24
 8001350:	f044 4e00 	orr.w	lr, r4, #2147483648	; 0x80000000
 8001354:	17d3      	asrs	r3, r2, #31
 8001356:	1f01      	subs	r1, r0, #4
 8001358:	f856 7f04 	ldr.w	r7, [r6, #4]!
 800135c:	1bd4      	subs	r4, r2, r7
 800135e:	f163 0500 	sbc.w	r5, r3, #0
 8001362:	4566      	cmp	r6, ip
 8001364:	f841 4f04 	str.w	r4, [r1, #4]!
 8001368:	462a      	mov	r2, r5
 800136a:	ea4f 73e5 	mov.w	r3, r5, asr #31
 800136e:	d1f3      	bne.n	8001358 <fe25519_neg+0x28>
 8001370:	eb15 020e 	adds.w	r2, r5, lr
 8001374:	61c2      	str	r2, [r0, #28]
 8001376:	bdf0      	pop	{r4, r5, r6, r7, pc}

08001378 <fe25519_mpyWith_uint16>:
 8001378:	69c3      	ldr	r3, [r0, #28]
 800137a:	0c1a      	lsrs	r2, r3, #16
 800137c:	fb01 f202 	mul.w	r2, r1, r2
 8001380:	b29b      	uxth	r3, r3
 8001382:	e92d 43f0 	stmdb	sp!, {r4, r5, r6, r7, r8, r9, lr}
 8001386:	fb01 f303 	mul.w	r3, r1, r3
 800138a:	0414      	lsls	r4, r2, #16
 800138c:	18e4      	adds	r4, r4, r3
 800138e:	ea4f 4512 	mov.w	r5, r2, lsr #16
 8001392:	f145 0500 	adc.w	r5, r5, #0
 8001396:	0fe3      	lsrs	r3, r4, #31
 8001398:	ea43 0345 	orr.w	r3, r3, r5, lsl #1
 800139c:	eb03 02c3 	add.w	r2, r3, r3, lsl #3
 80013a0:	f04f 0c00 	mov.w	ip, #0
 80013a4:	eb03 0242 	add.w	r2, r3, r2, lsl #1
 80013a8:	f024 4e00 	bic.w	lr, r4, #2147483648	; 0x80000000
 80013ac:	1f06      	subs	r6, r0, #4
 80013ae:	f100 0818 	add.w	r8, r0, #24
 80013b2:	4667      	mov	r7, ip
 80013b4:	f856 3f04 	ldr.w	r3, [r6, #4]!
 80013b8:	ea4f 4913 	mov.w	r9, r3, lsr #16
 80013bc:	fb01 f909 	mul.w	r9, r1, r9
 80013c0:	b29b      	uxth	r3, r3
 80013c2:	fb01 f303 	mul.w	r3, r1, r3
 80013c6:	ea4f 4409 	mov.w	r4, r9, lsl #16
 80013ca:	18e4      	adds	r4, r4, r3
 80013cc:	ea4f 4519 	mov.w	r5, r9, lsr #16
 80013d0:	f145 0500 	adc.w	r5, r5, #0
 80013d4:	18a3      	adds	r3, r4, r2
 80013d6:	eb45 020c 	adc.w	r2, r5, ip
 80013da:	45b0      	cmp	r8, r6
 80013dc:	6033      	str	r3, [r6, #0]
 80013de:	46bc      	mov	ip, r7
 80013e0:	d1e8      	bne.n	80013b4 <fe25519_mpyWith_uint16+0x3c>
 80013e2:	4472      	add	r2, lr
 80013e4:	61c2      	str	r2, [r0, #28]
 80013e6:	e8bd 83f0 	ldmia.w	sp!, {r4, r5, r6, r7, r8, r9, pc}
 80013ea:	bf00      	nop

080013ec <fe25519_reduceCompletely>:
 80013ec:	e92d 03f0 	stmdb	sp!, {r4, r5, r6, r7, r8, r9}
 80013f0:	69c7      	ldr	r7, [r0, #28]
 80013f2:	0ffa      	lsrs	r2, r7, #31
 80013f4:	3201      	adds	r2, #1
 80013f6:	eb02 03c2 	add.w	r3, r2, r2, lsl #3
 80013fa:	1f01      	subs	r1, r0, #4
 80013fc:	eb02 0243 	add.w	r2, r2, r3, lsl #1
 8001400:	460c      	mov	r4, r1
 8001402:	2300      	movs	r3, #0
 8001404:	f100 0618 	add.w	r6, r0, #24
 8001408:	f854 5f04 	ldr.w	r5, [r4, #4]!
 800140c:	eb12 0805 	adds.w	r8, r2, r5
 8001410:	f143 0900 	adc.w	r9, r3, #0
 8001414:	42a6      	cmp	r6, r4
 8001416:	464a      	mov	r2, r9
 8001418:	f04f 0300 	mov.w	r3, #0
 800141c:	d1f4      	bne.n	8001408 <fe25519_reduceCompletely+0x1c>
 800141e:	eb19 0207 	adds.w	r2, r9, r7
 8001422:	f143 0300 	adc.w	r3, r3, #0
 8001426:	0fd4      	lsrs	r4, r2, #31
 8001428:	ea44 0443 	orr.w	r4, r4, r3, lsl #1
 800142c:	eb04 03c4 	add.w	r3, r4, r4, lsl #3
 8001430:	eb04 0243 	add.w	r2, r4, r3, lsl #1
 8001434:	46bc      	mov	ip, r7
 8001436:	2300      	movs	r3, #0
 8001438:	f851 7f04 	ldr.w	r7, [r1, #4]!
 800143c:	19d4      	adds	r4, r2, r7
 800143e:	f143 0500 	adc.w	r5, r3, #0
 8001442:	428e      	cmp	r6, r1
 8001444:	462a      	mov	r2, r5
 8001446:	600c      	str	r4, [r1, #0]
 8001448:	f04f 0300 	mov.w	r3, #0
 800144c:	d1f4      	bne.n	8001438 <fe25519_reduceCompletely+0x4c>
 800144e:	eb1c 0205 	adds.w	r2, ip, r5
 8001452:	f022 4200 	bic.w	r2, r2, #2147483648	; 0x80000000
 8001456:	e8bd 03f0 	ldmia.w	sp!, {r4, r5, r6, r7, r8, r9}
 800145a:	61c2      	str	r2, [r0, #28]
 800145c:	4770      	bx	lr
 800145e:	bf00      	nop

08001460 <fe25519_pack>:
 8001460:	b538      	push	{r3, r4, r5, lr}
 8001462:	460d      	mov	r5, r1
 8001464:	4604      	mov	r4, r0
 8001466:	4608      	mov	r0, r1
 8001468:	f7ff ffc0 	bl	80013ec <fe25519_reduceCompletely>
 800146c:	1e62      	subs	r2, r4, #1
 800146e:	1e6b      	subs	r3, r5, #1
 8001470:	f105 001f 	add.w	r0, r5, #31
 8001474:	f813 1f01 	ldrb.w	r1, [r3, #1]!
 8001478:	f802 1f01 	strb.w	r1, [r2, #1]!
 800147c:	4283      	cmp	r3, r0
 800147e:	d1f9      	bne.n	8001474 <fe25519_pack+0x14>
 8001480:	bd38      	pop	{r3, r4, r5, pc}
 8001482:	bf00      	nop

08001484 <fe25519_iseq_vartime>:
 8001484:	b538      	push	{r3, r4, r5, lr}
 8001486:	69c2      	ldr	r2, [r0, #28]
 8001488:	69cb      	ldr	r3, [r1, #28]
 800148a:	429a      	cmp	r2, r3
 800148c:	460c      	mov	r4, r1
 800148e:	4605      	mov	r5, r0
 8001490:	d10d      	bne.n	80014ae <fe25519_iseq_vartime+0x2a>
 8001492:	1f21      	subs	r1, r4, #4
 8001494:	1f2b      	subs	r3, r5, #4
 8001496:	f105 0018 	add.w	r0, r5, #24
 800149a:	f853 4f04 	ldr.w	r4, [r3, #4]!
 800149e:	f851 2f04 	ldr.w	r2, [r1, #4]!
 80014a2:	4294      	cmp	r4, r2
 80014a4:	d10c      	bne.n	80014c0 <fe25519_iseq_vartime+0x3c>
 80014a6:	4283      	cmp	r3, r0
 80014a8:	d1f7      	bne.n	800149a <fe25519_iseq_vartime+0x16>
 80014aa:	2001      	movs	r0, #1
 80014ac:	bd38      	pop	{r3, r4, r5, pc}
 80014ae:	f7ff ff9d 	bl	80013ec <fe25519_reduceCompletely>
 80014b2:	4620      	mov	r0, r4
 80014b4:	f7ff ff9a 	bl	80013ec <fe25519_reduceCompletely>
 80014b8:	69ea      	ldr	r2, [r5, #28]
 80014ba:	69e3      	ldr	r3, [r4, #28]
 80014bc:	429a      	cmp	r2, r3
 80014be:	d0e8      	beq.n	8001492 <fe25519_iseq_vartime+0xe>
 80014c0:	2000      	movs	r0, #0
 80014c2:	bd38      	pop	{r3, r4, r5, pc}

080014c4 <fe25519_iszero>:
 80014c4:	b510      	push	{r4, lr}
 80014c6:	f7ff ff91 	bl	80013ec <fe25519_reduceCompletely>
 80014ca:	1d03      	adds	r3, r0, #4
 80014cc:	f100 0120 	add.w	r1, r0, #32
 80014d0:	2000      	movs	r0, #0
 80014d2:	f853 2b04 	ldr.w	r2, [r3], #4
 80014d6:	428b      	cmp	r3, r1
 80014d8:	ea40 0002 	orr.w	r0, r0, r2
 80014dc:	d1f9      	bne.n	80014d2 <fe25519_iszero+0xe>
 80014de:	bd10      	pop	{r4, pc}

080014e0 <fe25519_getparity>:
 80014e0:	b510      	push	{r4, lr}
 80014e2:	f7ff ff83 	bl	80013ec <fe25519_reduceCompletely>
 80014e6:	7800      	ldrb	r0, [r0, #0]
 80014e8:	f000 0001 	and.w	r0, r0, #1
 80014ec:	bd10      	pop	{r4, pc}
 80014ee:	bf00      	nop

080014f0 <fe25519_generateRandomValue>:
 80014f0:	2220      	movs	r2, #32
 80014f2:	2300      	movs	r3, #0
 80014f4:	f7ff bb0e 	b.w	8000b14 <randombytes>

080014f8 <fe25519_squareroot>:
 80014f8:	e92d 43f0 	stmdb	sp!, {r4, r5, r6, r7, r8, r9, lr}
 80014fc:	4e8c      	ldr	r6, [pc, #560]	; (8001730 <fe25519_squareroot+0x238>)
 80014fe:	4689      	mov	r9, r1
 8001500:	4605      	mov	r5, r0
 8001502:	ce0f      	ldmia	r6!, {r0, r1, r2, r3}
 8001504:	b0a9      	sub	sp, #164	; 0xa4
 8001506:	ac18      	add	r4, sp, #96	; 0x60
 8001508:	c40f      	stmia	r4!, {r0, r1, r2, r3}
 800150a:	e896 000f 	ldmia.w	r6, {r0, r1, r2, r3}
 800150e:	f1a9 0704 	sub.w	r7, r9, #4
 8001512:	f1ad 0804 	sub.w	r8, sp, #4
 8001516:	e884 000f 	stmia.w	r4, {r0, r1, r2, r3}
 800151a:	f109 061c 	add.w	r6, r9, #28
 800151e:	463b      	mov	r3, r7
 8001520:	4642      	mov	r2, r8
 8001522:	f853 1f04 	ldr.w	r1, [r3, #4]!
 8001526:	f842 1f04 	str.w	r1, [r2, #4]!
 800152a:	429e      	cmp	r6, r3
 800152c:	d1f9      	bne.n	8001522 <fe25519_squareroot+0x2a>
 800152e:	2300      	movs	r3, #0
 8001530:	2201      	movs	r2, #1
 8001532:	e9cd 2310 	strd	r2, r3, [sp, #64]	; 0x40
 8001536:	e9cd 3312 	strd	r3, r3, [sp, #72]	; 0x48
 800153a:	e9cd 3314 	strd	r3, r3, [sp, #80]	; 0x50
 800153e:	e9cd 3316 	strd	r3, r3, [sp, #88]	; 0x58
 8001542:	aa07      	add	r2, sp, #28
 8001544:	463b      	mov	r3, r7
 8001546:	f853 1f04 	ldr.w	r1, [r3, #4]!
 800154a:	f842 1f04 	str.w	r1, [r2, #4]!
 800154e:	429e      	cmp	r6, r3
 8001550:	d1f9      	bne.n	8001546 <fe25519_squareroot+0x4e>
 8001552:	4669      	mov	r1, sp
 8001554:	4668      	mov	r0, sp
 8001556:	f7ff f827 	bl	80005a8 <fe25519_square_asm>
 800155a:	aa08      	add	r2, sp, #32
 800155c:	4610      	mov	r0, r2
 800155e:	4669      	mov	r1, sp
 8001560:	f7ff f8f0 	bl	8000744 <fe25519_mul_asm>
 8001564:	4669      	mov	r1, sp
 8001566:	4668      	mov	r0, sp
 8001568:	f7ff f81e 	bl	80005a8 <fe25519_square_asm>
 800156c:	24fa      	movs	r4, #250	; 0xfa
 800156e:	4669      	mov	r1, sp
 8001570:	4668      	mov	r0, sp
 8001572:	f7ff f819 	bl	80005a8 <fe25519_square_asm>
 8001576:	aa08      	add	r2, sp, #32
 8001578:	4669      	mov	r1, sp
 800157a:	4610      	mov	r0, r2
 800157c:	f7ff f8e2 	bl	8000744 <fe25519_mul_asm>
 8001580:	3c01      	subs	r4, #1
 8001582:	d1f4      	bne.n	800156e <fe25519_squareroot+0x76>
 8001584:	a910      	add	r1, sp, #64	; 0x40
 8001586:	a808      	add	r0, sp, #32
 8001588:	f7ff ff7c 	bl	8001484 <fe25519_iseq_vartime>
 800158c:	4604      	mov	r4, r0
 800158e:	b1f8      	cbz	r0, 80015d0 <fe25519_squareroot+0xd8>
 8001590:	f857 3f04 	ldr.w	r3, [r7, #4]!
 8001594:	f848 3f04 	str.w	r3, [r8, #4]!
 8001598:	42b7      	cmp	r7, r6
 800159a:	d1f9      	bne.n	8001590 <fe25519_squareroot+0x98>
 800159c:	2300      	movs	r3, #0
 800159e:	2201      	movs	r2, #1
 80015a0:	e9c5 2300 	strd	r2, r3, [r5]
 80015a4:	e9c5 3302 	strd	r3, r3, [r5, #8]
 80015a8:	e9c5 3304 	strd	r3, r3, [r5, #16]
 80015ac:	e9c5 3306 	strd	r3, r3, [r5, #24]
 80015b0:	24fb      	movs	r4, #251	; 0xfb
 80015b2:	4669      	mov	r1, sp
 80015b4:	4668      	mov	r0, sp
 80015b6:	f7fe fff7 	bl	80005a8 <fe25519_square_asm>
 80015ba:	466a      	mov	r2, sp
 80015bc:	4629      	mov	r1, r5
 80015be:	4628      	mov	r0, r5
 80015c0:	f7ff f8c0 	bl	8000744 <fe25519_mul_asm>
 80015c4:	3c01      	subs	r4, #1
 80015c6:	d1f4      	bne.n	80015b2 <fe25519_squareroot+0xba>
 80015c8:	4620      	mov	r0, r4
 80015ca:	b029      	add	sp, #164	; 0xa4
 80015cc:	e8bd 83f0 	ldmia.w	sp!, {r4, r5, r6, r7, r8, r9, pc}
 80015d0:	a918      	add	r1, sp, #96	; 0x60
 80015d2:	a808      	add	r0, sp, #32
 80015d4:	f7ff ff56 	bl	8001484 <fe25519_iseq_vartime>
 80015d8:	2800      	cmp	r0, #0
 80015da:	f000 80a5 	beq.w	8001728 <fe25519_squareroot+0x230>
 80015de:	2201      	movs	r2, #1
 80015e0:	ab20      	add	r3, sp, #128	; 0x80
 80015e2:	4611      	mov	r1, r2
 80015e4:	46ce      	mov	lr, r9
 80015e6:	f8d9 601c 	ldr.w	r6, [r9, #28]
 80015ea:	f8de 001c 	ldr.w	r0, [lr, #28]
 80015ee:	4607      	mov	r7, r0
 80015f0:	fbe6 6761 	umaal	r6, r7, r6, r1
 80015f4:	fbe0 6701 	umlal	r6, r7, r0, r1
 80015f8:	f04f 0013 	mov.w	r0, #19
 80015fc:	fb07 f000 	mul.w	r0, r7, r0
 8001600:	f8d9 7000 	ldr.w	r7, [r9]
 8001604:	f8de c000 	ldr.w	ip, [lr]
 8001608:	fbe1 7c60 	umaal	r7, ip, r1, r0
 800160c:	601f      	str	r7, [r3, #0]
 800160e:	f8d9 0004 	ldr.w	r0, [r9, #4]
 8001612:	f8de 7004 	ldr.w	r7, [lr, #4]
 8001616:	fbe1 7c60 	umaal	r7, ip, r1, r0
 800161a:	605f      	str	r7, [r3, #4]
 800161c:	f8d9 0008 	ldr.w	r0, [r9, #8]
 8001620:	f8de 7008 	ldr.w	r7, [lr, #8]
 8001624:	fbe1 7c60 	umaal	r7, ip, r1, r0
 8001628:	609f      	str	r7, [r3, #8]
 800162a:	f8d9 000c 	ldr.w	r0, [r9, #12]
 800162e:	f8de 700c 	ldr.w	r7, [lr, #12]
 8001632:	fbe1 7c60 	umaal	r7, ip, r1, r0
 8001636:	60df      	str	r7, [r3, #12]
 8001638:	f8d9 0010 	ldr.w	r0, [r9, #16]
 800163c:	f8de 7010 	ldr.w	r7, [lr, #16]
 8001640:	fbe1 7c60 	umaal	r7, ip, r1, r0
 8001644:	611f      	str	r7, [r3, #16]
 8001646:	f8d9 0014 	ldr.w	r0, [r9, #20]
 800164a:	f8de 7014 	ldr.w	r7, [lr, #20]
 800164e:	fbe1 7c60 	umaal	r7, ip, r1, r0
 8001652:	615f      	str	r7, [r3, #20]
 8001654:	f8d9 0018 	ldr.w	r0, [r9, #24]
 8001658:	f8de 7018 	ldr.w	r7, [lr, #24]
 800165c:	fbe1 7c60 	umaal	r7, ip, r1, r0
 8001660:	619f      	str	r7, [r3, #24]
 8001662:	eb0c 0c56 	add.w	ip, ip, r6, lsr #1
 8001666:	f8c3 c01c 	str.w	ip, [r3, #28]
 800166a:	ab20      	add	r3, sp, #128	; 0x80
 800166c:	4629      	mov	r1, r5
 800166e:	469e      	mov	lr, r3
 8001670:	69de      	ldr	r6, [r3, #28]
 8001672:	f8de 001c 	ldr.w	r0, [lr, #28]
 8001676:	4607      	mov	r7, r0
 8001678:	fbe6 6762 	umaal	r6, r7, r6, r2
 800167c:	fbe0 6702 	umlal	r6, r7, r0, r2
 8001680:	f04f 0013 	mov.w	r0, #19
 8001684:	fb07 f000 	mul.w	r0, r7, r0
 8001688:	681f      	ldr	r7, [r3, #0]
 800168a:	f8de c000 	ldr.w	ip, [lr]
 800168e:	fbe2 7c60 	umaal	r7, ip, r2, r0
 8001692:	600f      	str	r7, [r1, #0]
 8001694:	6858      	ldr	r0, [r3, #4]
 8001696:	f8de 7004 	ldr.w	r7, [lr, #4]
 800169a:	fbe2 7c60 	umaal	r7, ip, r2, r0
 800169e:	604f      	str	r7, [r1, #4]
 80016a0:	6898      	ldr	r0, [r3, #8]
 80016a2:	f8de 7008 	ldr.w	r7, [lr, #8]
 80016a6:	fbe2 7c60 	umaal	r7, ip, r2, r0
 80016aa:	608f      	str	r7, [r1, #8]
 80016ac:	68d8      	ldr	r0, [r3, #12]
 80016ae:	f8de 700c 	ldr.w	r7, [lr, #12]
 80016b2:	fbe2 7c60 	umaal	r7, ip, r2, r0
 80016b6:	60cf      	str	r7, [r1, #12]
 80016b8:	6918      	ldr	r0, [r3, #16]
 80016ba:	f8de 7010 	ldr.w	r7, [lr, #16]
 80016be:	fbe2 7c60 	umaal	r7, ip, r2, r0
 80016c2:	610f      	str	r7, [r1, #16]
 80016c4:	6958      	ldr	r0, [r3, #20]
 80016c6:	f8de 7014 	ldr.w	r7, [lr, #20]
 80016ca:	fbe2 7c60 	umaal	r7, ip, r2, r0
 80016ce:	614f      	str	r7, [r1, #20]
 80016d0:	6998      	ldr	r0, [r3, #24]
 80016d2:	f8de 7018 	ldr.w	r7, [lr, #24]
 80016d6:	fbe2 7c60 	umaal	r7, ip, r2, r0
 80016da:	618f      	str	r7, [r1, #24]
 80016dc:	eb0c 0c56 	add.w	ip, ip, r6, lsr #1
 80016e0:	f8c1 c01c 	str.w	ip, [r1, #28]
 80016e4:	1f2b      	subs	r3, r5, #4
 80016e6:	f105 011c 	add.w	r1, r5, #28
 80016ea:	f853 2f04 	ldr.w	r2, [r3, #4]!
 80016ee:	f848 2f04 	str.w	r2, [r8, #4]!
 80016f2:	4299      	cmp	r1, r3
 80016f4:	d1f9      	bne.n	80016ea <fe25519_squareroot+0x1f2>
 80016f6:	4669      	mov	r1, sp
 80016f8:	4668      	mov	r0, sp
 80016fa:	f7fe ff55 	bl	80005a8 <fe25519_square_asm>
 80016fe:	26fa      	movs	r6, #250	; 0xfa
 8001700:	4669      	mov	r1, sp
 8001702:	4668      	mov	r0, sp
 8001704:	f7fe ff50 	bl	80005a8 <fe25519_square_asm>
 8001708:	466a      	mov	r2, sp
 800170a:	4629      	mov	r1, r5
 800170c:	4628      	mov	r0, r5
 800170e:	f7ff f819 	bl	8000744 <fe25519_mul_asm>
 8001712:	3e01      	subs	r6, #1
 8001714:	d1f4      	bne.n	8001700 <fe25519_squareroot+0x208>
 8001716:	4628      	mov	r0, r5
 8001718:	aa20      	add	r2, sp, #128	; 0x80
 800171a:	4629      	mov	r1, r5
 800171c:	f7ff f812 	bl	8000744 <fe25519_mul_asm>
 8001720:	4620      	mov	r0, r4
 8001722:	b029      	add	sp, #164	; 0xa4
 8001724:	e8bd 83f0 	ldmia.w	sp!, {r4, r5, r6, r7, r8, r9, pc}
 8001728:	f04f 34ff 	mov.w	r4, #4294967295	; 0xffffffff
 800172c:	e74c      	b.n	80015c8 <fe25519_squareroot+0xd0>
 800172e:	bf00      	nop
 8001730:	08003408 	.word	0x08003408

08001734 <fe25519_invert_useProvidedScratchBuffers>:
 8001734:	e92d 41f0 	stmdb	sp!, {r4, r5, r6, r7, r8, lr}
 8001738:	b082      	sub	sp, #8
 800173a:	4614      	mov	r4, r2
 800173c:	9e08      	ldr	r6, [sp, #32]
 800173e:	9101      	str	r1, [sp, #4]
 8001740:	4607      	mov	r7, r0
 8001742:	4630      	mov	r0, r6
 8001744:	4698      	mov	r8, r3
 8001746:	f7fe ff2f 	bl	80005a8 <fe25519_square_asm>
 800174a:	4631      	mov	r1, r6
 800174c:	4620      	mov	r0, r4
 800174e:	f7fe ff2b 	bl	80005a8 <fe25519_square_asm>
 8001752:	4621      	mov	r1, r4
 8001754:	4620      	mov	r0, r4
 8001756:	f7fe ff27 	bl	80005a8 <fe25519_square_asm>
 800175a:	9a01      	ldr	r2, [sp, #4]
 800175c:	4621      	mov	r1, r4
 800175e:	4640      	mov	r0, r8
 8001760:	f7fe fff0 	bl	8000744 <fe25519_mul_asm>
 8001764:	4632      	mov	r2, r6
 8001766:	4641      	mov	r1, r8
 8001768:	4638      	mov	r0, r7
 800176a:	f7fe ffeb 	bl	8000744 <fe25519_mul_asm>
 800176e:	4639      	mov	r1, r7
 8001770:	4620      	mov	r0, r4
 8001772:	f7fe ff19 	bl	80005a8 <fe25519_square_asm>
 8001776:	4642      	mov	r2, r8
 8001778:	4621      	mov	r1, r4
 800177a:	4640      	mov	r0, r8
 800177c:	f7fe ffe2 	bl	8000744 <fe25519_mul_asm>
 8001780:	4641      	mov	r1, r8
 8001782:	4620      	mov	r0, r4
 8001784:	f7fe ff10 	bl	80005a8 <fe25519_square_asm>
 8001788:	4621      	mov	r1, r4
 800178a:	4620      	mov	r0, r4
 800178c:	f7fe ff0c 	bl	80005a8 <fe25519_square_asm>
 8001790:	4621      	mov	r1, r4
 8001792:	4620      	mov	r0, r4
 8001794:	f7fe ff08 	bl	80005a8 <fe25519_square_asm>
 8001798:	4621      	mov	r1, r4
 800179a:	4620      	mov	r0, r4
 800179c:	f7fe ff04 	bl	80005a8 <fe25519_square_asm>
 80017a0:	4621      	mov	r1, r4
 80017a2:	4620      	mov	r0, r4
 80017a4:	f7fe ff00 	bl	80005a8 <fe25519_square_asm>
 80017a8:	4642      	mov	r2, r8
 80017aa:	4621      	mov	r1, r4
 80017ac:	4640      	mov	r0, r8
 80017ae:	f7fe ffc9 	bl	8000744 <fe25519_mul_asm>
 80017b2:	4641      	mov	r1, r8
 80017b4:	4620      	mov	r0, r4
 80017b6:	f7fe fef7 	bl	80005a8 <fe25519_square_asm>
 80017ba:	2509      	movs	r5, #9
 80017bc:	4621      	mov	r1, r4
 80017be:	4620      	mov	r0, r4
 80017c0:	f7fe fef2 	bl	80005a8 <fe25519_square_asm>
 80017c4:	1e6b      	subs	r3, r5, #1
 80017c6:	f013 05ff 	ands.w	r5, r3, #255	; 0xff
 80017ca:	d1f7      	bne.n	80017bc <fe25519_invert_useProvidedScratchBuffers+0x88>
 80017cc:	4642      	mov	r2, r8
 80017ce:	4621      	mov	r1, r4
 80017d0:	4630      	mov	r0, r6
 80017d2:	f7fe ffb7 	bl	8000744 <fe25519_mul_asm>
 80017d6:	4631      	mov	r1, r6
 80017d8:	4620      	mov	r0, r4
 80017da:	f7fe fee5 	bl	80005a8 <fe25519_square_asm>
 80017de:	2513      	movs	r5, #19
 80017e0:	4621      	mov	r1, r4
 80017e2:	4620      	mov	r0, r4
 80017e4:	f7fe fee0 	bl	80005a8 <fe25519_square_asm>
 80017e8:	1e6b      	subs	r3, r5, #1
 80017ea:	f013 05ff 	ands.w	r5, r3, #255	; 0xff
 80017ee:	d1f7      	bne.n	80017e0 <fe25519_invert_useProvidedScratchBuffers+0xac>
 80017f0:	4632      	mov	r2, r6
 80017f2:	4621      	mov	r1, r4
 80017f4:	4620      	mov	r0, r4
 80017f6:	f7fe ffa5 	bl	8000744 <fe25519_mul_asm>
 80017fa:	4621      	mov	r1, r4
 80017fc:	4620      	mov	r0, r4
 80017fe:	f7fe fed3 	bl	80005a8 <fe25519_square_asm>
 8001802:	2509      	movs	r5, #9
 8001804:	4621      	mov	r1, r4
 8001806:	4620      	mov	r0, r4
 8001808:	f7fe fece 	bl	80005a8 <fe25519_square_asm>
 800180c:	1e6b      	subs	r3, r5, #1
 800180e:	f013 05ff 	ands.w	r5, r3, #255	; 0xff
 8001812:	d1f7      	bne.n	8001804 <fe25519_invert_useProvidedScratchBuffers+0xd0>
 8001814:	4642      	mov	r2, r8
 8001816:	4621      	mov	r1, r4
 8001818:	4630      	mov	r0, r6
 800181a:	f7fe ff93 	bl	8000744 <fe25519_mul_asm>
 800181e:	4631      	mov	r1, r6
 8001820:	4620      	mov	r0, r4
 8001822:	f7fe fec1 	bl	80005a8 <fe25519_square_asm>
 8001826:	2531      	movs	r5, #49	; 0x31
 8001828:	4621      	mov	r1, r4
 800182a:	4620      	mov	r0, r4
 800182c:	f7fe febc 	bl	80005a8 <fe25519_square_asm>
 8001830:	1e6a      	subs	r2, r5, #1
 8001832:	f012 05ff 	ands.w	r5, r2, #255	; 0xff
 8001836:	d1f7      	bne.n	8001828 <fe25519_invert_useProvidedScratchBuffers+0xf4>
 8001838:	4632      	mov	r2, r6
 800183a:	4621      	mov	r1, r4
 800183c:	4640      	mov	r0, r8
 800183e:	f7fe ff81 	bl	8000744 <fe25519_mul_asm>
 8001842:	4641      	mov	r1, r8
 8001844:	4620      	mov	r0, r4
 8001846:	f7fe feaf 	bl	80005a8 <fe25519_square_asm>
 800184a:	2563      	movs	r5, #99	; 0x63
 800184c:	4621      	mov	r1, r4
 800184e:	4620      	mov	r0, r4
 8001850:	f7fe feaa 	bl	80005a8 <fe25519_square_asm>
 8001854:	1e6a      	subs	r2, r5, #1
 8001856:	f012 05ff 	ands.w	r5, r2, #255	; 0xff
 800185a:	d1f7      	bne.n	800184c <fe25519_invert_useProvidedScratchBuffers+0x118>
 800185c:	4642      	mov	r2, r8
 800185e:	4621      	mov	r1, r4
 8001860:	4620      	mov	r0, r4
 8001862:	f7fe ff6f 	bl	8000744 <fe25519_mul_asm>
 8001866:	2532      	movs	r5, #50	; 0x32
 8001868:	4621      	mov	r1, r4
 800186a:	4620      	mov	r0, r4
 800186c:	f7fe fe9c 	bl	80005a8 <fe25519_square_asm>
 8001870:	1e6b      	subs	r3, r5, #1
 8001872:	f013 05ff 	ands.w	r5, r3, #255	; 0xff
 8001876:	d1f7      	bne.n	8001868 <fe25519_invert_useProvidedScratchBuffers+0x134>
 8001878:	4632      	mov	r2, r6
 800187a:	4621      	mov	r1, r4
 800187c:	4620      	mov	r0, r4
 800187e:	f7fe ff61 	bl	8000744 <fe25519_mul_asm>
 8001882:	2505      	movs	r5, #5
 8001884:	4621      	mov	r1, r4
 8001886:	4620      	mov	r0, r4
 8001888:	f7fe fe8e 	bl	80005a8 <fe25519_square_asm>
 800188c:	1e6b      	subs	r3, r5, #1
 800188e:	f013 05ff 	ands.w	r5, r3, #255	; 0xff
 8001892:	d1f7      	bne.n	8001884 <fe25519_invert_useProvidedScratchBuffers+0x150>
 8001894:	4621      	mov	r1, r4
 8001896:	463a      	mov	r2, r7
 8001898:	4638      	mov	r0, r7
 800189a:	b002      	add	sp, #8
 800189c:	e8bd 41f0 	ldmia.w	sp!, {r4, r5, r6, r7, r8, lr}
 80018a0:	f7fe bf50 	b.w	8000744 <fe25519_mul_asm>

080018a4 <fe25519_invert>:
 80018a4:	b500      	push	{lr}
 80018a6:	b09b      	sub	sp, #108	; 0x6c
 80018a8:	ab12      	add	r3, sp, #72	; 0x48
 80018aa:	9300      	str	r3, [sp, #0]
 80018ac:	aa02      	add	r2, sp, #8
 80018ae:	ab0a      	add	r3, sp, #40	; 0x28
 80018b0:	f7ff ff40 	bl	8001734 <fe25519_invert_useProvidedScratchBuffers>
 80018b4:	b01b      	add	sp, #108	; 0x6c
 80018b6:	f85d fb04 	ldr.w	pc, [sp], #4
 80018ba:	bf00      	nop

080018bc <multiply32x64>:
 80018bc:	e92d 4ff0 	stmdb	sp!, {r4, r5, r6, r7, r8, r9, sl, fp, lr}
 80018c0:	e9d2 4200 	ldrd	r4, r2, [r2]
 80018c4:	fa1f f981 	uxth.w	r9, r1
 80018c8:	b2a5      	uxth	r5, r4
 80018ca:	0c09      	lsrs	r1, r1, #16
 80018cc:	0c24      	lsrs	r4, r4, #16
 80018ce:	fb01 fc05 	mul.w	ip, r1, r5
 80018d2:	fb04 f309 	mul.w	r3, r4, r9
 80018d6:	ea4f 4e03 	mov.w	lr, r3, lsl #16
 80018da:	ea4f 4b0c 	mov.w	fp, ip, lsl #16
 80018de:	ea4f 4812 	mov.w	r8, r2, lsr #16
 80018e2:	fb05 fa09 	mul.w	sl, r5, r9
 80018e6:	b292      	uxth	r2, r2
 80018e8:	eb1e 050b 	adds.w	r5, lr, fp
 80018ec:	ea4f 4313 	mov.w	r3, r3, lsr #16
 80018f0:	ea4f 4e1c 	mov.w	lr, ip, lsr #16
 80018f4:	fb04 f401 	mul.w	r4, r4, r1
 80018f8:	eb43 030e 	adc.w	r3, r3, lr
 80018fc:	fb09 fc08 	mul.w	ip, r9, r8
 8001900:	fb01 fe02 	mul.w	lr, r1, r2
 8001904:	eb15 050a 	adds.w	r5, r5, sl
 8001908:	eb44 0303 	adc.w	r3, r4, r3
 800190c:	ea4f 4a0c 	mov.w	sl, ip, lsl #16
 8001910:	ea4f 440e 	mov.w	r4, lr, lsl #16
 8001914:	eb1a 0404 	adds.w	r4, sl, r4
 8001918:	fb09 f202 	mul.w	r2, r9, r2
 800191c:	ea4f 4c1c 	mov.w	ip, ip, lsr #16
 8001920:	ea4f 4e1e 	mov.w	lr, lr, lsr #16
 8001924:	eb4c 0c0e 	adc.w	ip, ip, lr
 8001928:	fb01 f108 	mul.w	r1, r1, r8
 800192c:	18a6      	adds	r6, r4, r2
 800192e:	eb4c 0701 	adc.w	r7, ip, r1
 8001932:	18f6      	adds	r6, r6, r3
 8001934:	f147 0700 	adc.w	r7, r7, #0
 8001938:	e880 00e0 	stmia.w	r0, {r5, r6, r7}
 800193c:	e8bd 8ff0 	ldmia.w	sp!, {r4, r5, r6, r7, r8, r9, sl, fp, pc}

08001940 <multiply64x64>:
 8001940:	e92d 4ff0 	stmdb	sp!, {r4, r5, r6, r7, r8, r9, sl, fp, lr}
 8001944:	f8b2 c000 	ldrh.w	ip, [r2]
 8001948:	f8b1 8002 	ldrh.w	r8, [r1, #2]
 800194c:	880c      	ldrh	r4, [r1, #0]
 800194e:	8857      	ldrh	r7, [r2, #2]
 8001950:	fb08 f50c 	mul.w	r5, r8, ip
 8001954:	fb07 fa04 	mul.w	sl, r7, r4
 8001958:	042e      	lsls	r6, r5, #16
 800195a:	ea4f 430a 	mov.w	r3, sl, lsl #16
 800195e:	fb0c f404 	mul.w	r4, ip, r4
 8001962:	199b      	adds	r3, r3, r6
 8001964:	ea4f 4515 	mov.w	r5, r5, lsr #16
 8001968:	ea4f 4a1a 	mov.w	sl, sl, lsr #16
 800196c:	eb4a 0a05 	adc.w	sl, sl, r5
 8001970:	191b      	adds	r3, r3, r4
 8001972:	6003      	str	r3, [r0, #0]
 8001974:	b087      	sub	sp, #28
 8001976:	f8b2 9004 	ldrh.w	r9, [r2, #4]
 800197a:	88cc      	ldrh	r4, [r1, #6]
 800197c:	f8b1 e004 	ldrh.w	lr, [r1, #4]
 8001980:	88d6      	ldrh	r6, [r2, #6]
 8001982:	9403      	str	r4, [sp, #12]
 8001984:	f04f 0500 	mov.w	r5, #0
 8001988:	fb04 f409 	mul.w	r4, r4, r9
 800198c:	46a3      	mov	fp, r4
 800198e:	46ac      	mov	ip, r5
 8001990:	fbe6 bc0e 	umlal	fp, ip, r6, lr
 8001994:	ea4f 450c 	mov.w	r5, ip, lsl #16
 8001998:	fb07 f708 	mul.w	r7, r7, r8
 800199c:	ea45 451b 	orr.w	r5, r5, fp, lsr #16
 80019a0:	ea4f 440b 	mov.w	r4, fp, lsl #16
 80019a4:	fbee 4509 	umlal	r4, r5, lr, r9
 80019a8:	eb4a 0a07 	adc.w	sl, sl, r7
 80019ac:	46a3      	mov	fp, r4
 80019ae:	eb13 030a 	adds.w	r3, r3, sl
 80019b2:	f04f 0700 	mov.w	r7, #0
 80019b6:	463c      	mov	r4, r7
 80019b8:	eb47 0e07 	adc.w	lr, r7, r7
 80019bc:	eb1b 0703 	adds.w	r7, fp, r3
 80019c0:	eb44 030e 	adc.w	r3, r4, lr
 80019c4:	eb1a 0a0b 	adds.w	sl, sl, fp
 80019c8:	eb44 0e04 	adc.w	lr, r4, r4
 80019cc:	eb1a 0303 	adds.w	r3, sl, r3
 80019d0:	9300      	str	r3, [sp, #0]
 80019d2:	eb4e 0304 	adc.w	r3, lr, r4
 80019d6:	9301      	str	r3, [sp, #4]
 80019d8:	e9dd 8900 	ldrd	r8, r9, [sp]
 80019dc:	46ac      	mov	ip, r5
 80019de:	9d03      	ldr	r5, [sp, #12]
 80019e0:	6047      	str	r7, [r0, #4]
 80019e2:	fb05 c606 	mla	r6, r5, r6, ip
 80019e6:	eb18 0806 	adds.w	r8, r8, r6
 80019ea:	f149 0900 	adc.w	r9, r9, #0
 80019ee:	444e      	add	r6, r9
 80019f0:	e9c0 8602 	strd	r8, r6, [r0, #8]
 80019f4:	e9d1 a900 	ldrd	sl, r9, [r1]
 80019f8:	e9d2 2b00 	ldrd	r2, fp, [r2]
 80019fc:	ebaa 0309 	sub.w	r3, sl, r9
 8001a00:	ebab 0102 	sub.w	r1, fp, r2
 8001a04:	0c1e      	lsrs	r6, r3, #16
 8001a06:	9103      	str	r1, [sp, #12]
 8001a08:	fa1f fc81 	uxth.w	ip, r1
 8001a0c:	0c0d      	lsrs	r5, r1, #16
 8001a0e:	ebbb 0102 	subs.w	r1, fp, r2
 8001a12:	fb06 f80c 	mul.w	r8, r6, ip
 8001a16:	eb6b 020b 	sbc.w	r2, fp, fp
 8001a1a:	e9cd 1200 	strd	r1, r2, [sp]
 8001a1e:	4641      	mov	r1, r8
 8001a20:	2200      	movs	r2, #0
 8001a22:	e9cd 1204 	strd	r1, r2, [sp, #16]
 8001a26:	ebba 0a09 	subs.w	sl, sl, r9
 8001a2a:	e9dd 8904 	ldrd	r8, r9, [sp, #16]
 8001a2e:	fa1f fe83 	uxth.w	lr, r3
 8001a32:	9901      	ldr	r1, [sp, #4]
 8001a34:	fb05 f20e 	mul.w	r2, r5, lr
 8001a38:	eb6a 0b0a 	sbc.w	fp, sl, sl
 8001a3c:	e9cd ab04 	strd	sl, fp, [sp, #16]
 8001a40:	eb18 0802 	adds.w	r8, r8, r2
 8001a44:	465a      	mov	r2, fp
 8001a46:	e9d0 ab02 	ldrd	sl, fp, [r0, #8]
 8001a4a:	ea03 0301 	and.w	r3, r3, r1
 8001a4e:	9903      	ldr	r1, [sp, #12]
 8001a50:	f149 0900 	adc.w	r9, r9, #0
 8001a54:	4011      	ands	r1, r2
 8001a56:	ebba 0a03 	subs.w	sl, sl, r3
 8001a5a:	f16b 0b00 	sbc.w	fp, fp, #0
 8001a5e:	ebba 0a01 	subs.w	sl, sl, r1
 8001a62:	9905      	ldr	r1, [sp, #20]
 8001a64:	fb0c fc0e 	mul.w	ip, ip, lr
 8001a68:	468e      	mov	lr, r1
 8001a6a:	9901      	ldr	r1, [sp, #4]
 8001a6c:	f16b 0b00 	sbc.w	fp, fp, #0
 8001a70:	fb01 b10e 	mla	r1, r1, lr, fp
 8001a74:	e9c0 a102 	strd	sl, r1, [r0, #8]
 8001a78:	ea4f 4309 	mov.w	r3, r9, lsl #16
 8001a7c:	ea4f 4208 	mov.w	r2, r8, lsl #16
 8001a80:	eb12 020c 	adds.w	r2, r2, ip
 8001a84:	ea43 4318 	orr.w	r3, r3, r8, lsr #16
 8001a88:	e9d0 8902 	ldrd	r8, r9, [r0, #8]
 8001a8c:	f143 0300 	adc.w	r3, r3, #0
 8001a90:	fb06 3505 	mla	r5, r6, r5, r3
 8001a94:	19d7      	adds	r7, r2, r7
 8001a96:	eb44 0204 	adc.w	r2, r4, r4
 8001a9a:	eb18 0805 	adds.w	r8, r8, r5
 8001a9e:	f149 0900 	adc.w	r9, r9, #0
 8001aa2:	eb18 0202 	adds.w	r2, r8, r2
 8001aa6:	eb49 0404 	adc.w	r4, r9, r4
 8001aaa:	e9c0 2402 	strd	r2, r4, [r0, #8]
 8001aae:	6047      	str	r7, [r0, #4]
 8001ab0:	b007      	add	sp, #28
 8001ab2:	e8bd 8ff0 	ldmia.w	sp!, {r4, r5, r6, r7, r8, r9, sl, fp, pc}
 8001ab6:	bf00      	nop

08001ab8 <multiply96x96_c>:
 8001ab8:	e92d 4ff0 	stmdb	sp!, {r4, r5, r6, r7, r8, r9, sl, fp, lr}
 8001abc:	4614      	mov	r4, r2
 8001abe:	b097      	sub	sp, #92	; 0x5c
 8001ac0:	8827      	ldrh	r7, [r4, #0]
 8001ac2:	f8b1 c002 	ldrh.w	ip, [r1, #2]
 8001ac6:	880b      	ldrh	r3, [r1, #0]
 8001ac8:	8852      	ldrh	r2, [r2, #2]
 8001aca:	688e      	ldr	r6, [r1, #8]
 8001acc:	9607      	str	r6, [sp, #28]
 8001ace:	fb0c f507 	mul.w	r5, ip, r7
 8001ad2:	fb02 f603 	mul.w	r6, r2, r3
 8001ad6:	9406      	str	r4, [sp, #24]
 8001ad8:	ea4f 4e05 	mov.w	lr, r5, lsl #16
 8001adc:	0434      	lsls	r4, r6, #16
 8001ade:	eb14 040e 	adds.w	r4, r4, lr
 8001ae2:	fb07 f303 	mul.w	r3, r7, r3
 8001ae6:	ea4f 4515 	mov.w	r5, r5, lsr #16
 8001aea:	ea4f 4616 	mov.w	r6, r6, lsr #16
 8001aee:	eb45 0606 	adc.w	r6, r5, r6
 8001af2:	18e3      	adds	r3, r4, r3
 8001af4:	9c06      	ldr	r4, [sp, #24]
 8001af6:	6003      	str	r3, [r0, #0]
 8001af8:	888f      	ldrh	r7, [r1, #4]
 8001afa:	f8b4 9006 	ldrh.w	r9, [r4, #6]
 8001afe:	f8b4 e004 	ldrh.w	lr, [r4, #4]
 8001b02:	4680      	mov	r8, r0
 8001b04:	88c8      	ldrh	r0, [r1, #6]
 8001b06:	fb09 f407 	mul.w	r4, r9, r7
 8001b0a:	f04f 0500 	mov.w	r5, #0
 8001b0e:	fbee 4500 	umlal	r4, r5, lr, r0
 8001b12:	ea4f 4b05 	mov.w	fp, r5, lsl #16
 8001b16:	fb02 f20c 	mul.w	r2, r2, ip
 8001b1a:	ea4b 4b14 	orr.w	fp, fp, r4, lsr #16
 8001b1e:	ea4f 4a04 	mov.w	sl, r4, lsl #16
 8001b22:	fbe7 ab0e 	umlal	sl, fp, r7, lr
 8001b26:	eb42 0606 	adc.w	r6, r2, r6
 8001b2a:	4654      	mov	r4, sl
 8001b2c:	199a      	adds	r2, r3, r6
 8001b2e:	465d      	mov	r5, fp
 8001b30:	f04f 0b00 	mov.w	fp, #0
 8001b34:	e9cd 4508 	strd	r4, r5, [sp, #32]
 8001b38:	eb4b 030b 	adc.w	r3, fp, fp
 8001b3c:	1915      	adds	r5, r2, r4
 8001b3e:	eb43 030b 	adc.w	r3, r3, fp
 8001b42:	1936      	adds	r6, r6, r4
 8001b44:	eb4b 020b 	adc.w	r2, fp, fp
 8001b48:	199f      	adds	r7, r3, r6
 8001b4a:	465b      	mov	r3, fp
 8001b4c:	eb43 0202 	adc.w	r2, r3, r2
 8001b50:	9700      	str	r7, [sp, #0]
 8001b52:	9201      	str	r2, [sp, #4]
 8001b54:	e9dd 2300 	ldrd	r2, r3, [sp]
 8001b58:	9c09      	ldr	r4, [sp, #36]	; 0x24
 8001b5a:	f8c8 5004 	str.w	r5, [r8, #4]
 8001b5e:	fb09 4000 	mla	r0, r9, r0, r4
 8001b62:	1812      	adds	r2, r2, r0
 8001b64:	f143 0300 	adc.w	r3, r3, #0
 8001b68:	4418      	add	r0, r3
 8001b6a:	e9c8 2002 	strd	r2, r0, [r8, #8]
 8001b6e:	9b06      	ldr	r3, [sp, #24]
 8001b70:	950c      	str	r5, [sp, #48]	; 0x30
 8001b72:	e9d1 5400 	ldrd	r5, r4, [r1]
 8001b76:	685a      	ldr	r2, [r3, #4]
 8001b78:	681b      	ldr	r3, [r3, #0]
 8001b7a:	f8cd b034 	str.w	fp, [sp, #52]	; 0x34
 8001b7e:	eba5 0a04 	sub.w	sl, r5, r4
 8001b82:	eba2 0e03 	sub.w	lr, r2, r3
 8001b86:	ea4f 461a 	mov.w	r6, sl, lsr #16
 8001b8a:	fa1f f08e 	uxth.w	r0, lr
 8001b8e:	ebb2 0b03 	subs.w	fp, r2, r3
 8001b92:	fb06 f900 	mul.w	r9, r6, r0
 8001b96:	fa1f f78a 	uxth.w	r7, sl
 8001b9a:	9608      	str	r6, [sp, #32]
 8001b9c:	ea4f 461e 	mov.w	r6, lr, lsr #16
 8001ba0:	eb62 0c02 	sbc.w	ip, r2, r2
 8001ba4:	1b2c      	subs	r4, r5, r4
 8001ba6:	464a      	mov	r2, r9
 8001ba8:	fb06 f907 	mul.w	r9, r6, r7
 8001bac:	e9cd bc0a 	strd	fp, ip, [sp, #40]	; 0x28
 8001bb0:	eb65 0505 	sbc.w	r5, r5, r5
 8001bb4:	2300      	movs	r3, #0
 8001bb6:	eb12 0b09 	adds.w	fp, r2, r9
 8001bba:	e9cd 4500 	strd	r4, r5, [sp]
 8001bbe:	ea0a 040c 	and.w	r4, sl, ip
 8001bc2:	f143 0c00 	adc.w	ip, r3, #0
 8001bc6:	e9d8 2302 	ldrd	r2, r3, [r8, #8]
 8001bca:	9d01      	ldr	r5, [sp, #4]
 8001bcc:	1b12      	subs	r2, r2, r4
 8001bce:	ea0e 0e05 	and.w	lr, lr, r5
 8001bd2:	f163 0300 	sbc.w	r3, r3, #0
 8001bd6:	4664      	mov	r4, ip
 8001bd8:	ebb2 090e 	subs.w	r9, r2, lr
 8001bdc:	f163 0a00 	sbc.w	sl, r3, #0
 8001be0:	0423      	lsls	r3, r4, #16
 8001be2:	465c      	mov	r4, fp
 8001be4:	fb00 f007 	mul.w	r0, r0, r7
 8001be8:	0422      	lsls	r2, r4, #16
 8001bea:	1812      	adds	r2, r2, r0
 8001bec:	9c0b      	ldr	r4, [sp, #44]	; 0x2c
 8001bee:	9806      	ldr	r0, [sp, #24]
 8001bf0:	ea43 431b 	orr.w	r3, r3, fp, lsr #16
 8001bf4:	f143 0300 	adc.w	r3, r3, #0
 8001bf8:	fb04 a405 	mla	r4, r4, r5, sl
 8001bfc:	461d      	mov	r5, r3
 8001bfe:	9b08      	ldr	r3, [sp, #32]
 8001c00:	f8dd a030 	ldr.w	sl, [sp, #48]	; 0x30
 8001c04:	6880      	ldr	r0, [r0, #8]
 8001c06:	e9c8 9402 	strd	r9, r4, [r8, #8]
 8001c0a:	fb03 5606 	mla	r6, r3, r6, r5
 8001c0e:	9b07      	ldr	r3, [sp, #28]
 8001c10:	eb1a 0a02 	adds.w	sl, sl, r2
 8001c14:	b29f      	uxth	r7, r3
 8001c16:	ea4f 4413 	mov.w	r4, r3, lsr #16
 8001c1a:	e9d8 2302 	ldrd	r2, r3, [r8, #8]
 8001c1e:	f04f 0b00 	mov.w	fp, #0
 8001c22:	eb4b 050b 	adc.w	r5, fp, fp
 8001c26:	1992      	adds	r2, r2, r6
 8001c28:	f143 0300 	adc.w	r3, r3, #0
 8001c2c:	ea4f 4e10 	mov.w	lr, r0, lsr #16
 8001c30:	e9cd 2300 	strd	r2, r3, [sp]
 8001c34:	b280      	uxth	r0, r0
 8001c36:	fb0e fc07 	mul.w	ip, lr, r7
 8001c3a:	fb04 f600 	mul.w	r6, r4, r0
 8001c3e:	9b01      	ldr	r3, [sp, #4]
 8001c40:	f8c8 a004 	str.w	sl, [r8, #4]
 8001c44:	1955      	adds	r5, r2, r5
 8001c46:	ea4f 4906 	mov.w	r9, r6, lsl #16
 8001c4a:	ea4f 420c 	mov.w	r2, ip, lsl #16
 8001c4e:	eb43 030b 	adc.w	r3, r3, fp
 8001c52:	ea4f 4c1c 	mov.w	ip, ip, lsr #16
 8001c56:	eb12 0209 	adds.w	r2, r2, r9
 8001c5a:	ea4f 4616 	mov.w	r6, r6, lsr #16
 8001c5e:	fb00 f907 	mul.w	r9, r0, r7
 8001c62:	eb4c 0606 	adc.w	r6, ip, r6
 8001c66:	eb12 0209 	adds.w	r2, r2, r9
 8001c6a:	fb0e fc04 	mul.w	ip, lr, r4
 8001c6e:	eb46 060c 	adc.w	r6, r6, ip
 8001c72:	e9c8 5302 	strd	r5, r3, [r8, #8]
 8001c76:	e9c8 2604 	strd	r2, r6, [r8, #16]
 8001c7a:	9600      	str	r6, [sp, #0]
 8001c7c:	e9d1 6100 	ldrd	r6, r1, [r1]
 8001c80:	b2b3      	uxth	r3, r6
 8001c82:	0c36      	lsrs	r6, r6, #16
 8001c84:	fb00 f206 	mul.w	r2, r0, r6
 8001c88:	fb0e f503 	mul.w	r5, lr, r3
 8001c8c:	ea4f 4911 	mov.w	r9, r1, lsr #16
 8001c90:	ea4f 4c02 	mov.w	ip, r2, lsl #16
 8001c94:	ea4f 4a05 	mov.w	sl, r5, lsl #16
 8001c98:	b289      	uxth	r1, r1
 8001c9a:	fb00 fb03 	mul.w	fp, r0, r3
 8001c9e:	0c2d      	lsrs	r5, r5, #16
 8001ca0:	eb1c 030a 	adds.w	r3, ip, sl
 8001ca4:	ea4f 4212 	mov.w	r2, r2, lsr #16
 8001ca8:	fb00 fc09 	mul.w	ip, r0, r9
 8001cac:	fb0e fa01 	mul.w	sl, lr, r1
 8001cb0:	fb0e f606 	mul.w	r6, lr, r6
 8001cb4:	eb45 0202 	adc.w	r2, r5, r2
 8001cb8:	eb13 030b 	adds.w	r3, r3, fp
 8001cbc:	ea4f 450c 	mov.w	r5, ip, lsl #16
 8001cc0:	ea4f 4b0a 	mov.w	fp, sl, lsl #16
 8001cc4:	eb46 0202 	adc.w	r2, r6, r2
 8001cc8:	fb00 f001 	mul.w	r0, r0, r1
 8001ccc:	eb15 050b 	adds.w	r5, r5, fp
 8001cd0:	ea4f 4a1a 	mov.w	sl, sl, lsr #16
 8001cd4:	ea4f 4c1c 	mov.w	ip, ip, lsr #16
 8001cd8:	eb4c 0c0a 	adc.w	ip, ip, sl
 8001cdc:	fb0e fe09 	mul.w	lr, lr, r9
 8001ce0:	1829      	adds	r1, r5, r0
 8001ce2:	9102      	str	r1, [sp, #8]
 8001ce4:	eb4c 010e 	adc.w	r1, ip, lr
 8001ce8:	9103      	str	r1, [sp, #12]
 8001cea:	e9dd 0102 	ldrd	r0, r1, [sp, #8]
 8001cee:	1880      	adds	r0, r0, r2
 8001cf0:	9a06      	ldr	r2, [sp, #24]
 8001cf2:	e9cd 300e 	strd	r3, r0, [sp, #56]	; 0x38
 8001cf6:	6813      	ldr	r3, [r2, #0]
 8001cf8:	6850      	ldr	r0, [r2, #4]
 8001cfa:	f141 0100 	adc.w	r1, r1, #0
 8001cfe:	ea4f 4c13 	mov.w	ip, r3, lsr #16
 8001d02:	b29b      	uxth	r3, r3
 8001d04:	fb04 fe03 	mul.w	lr, r4, r3
 8001d08:	9110      	str	r1, [sp, #64]	; 0x40
 8001d0a:	fb07 f10c 	mul.w	r1, r7, ip
 8001d0e:	040d      	lsls	r5, r1, #16
 8001d10:	ea4f 460e 	mov.w	r6, lr, lsl #16
 8001d14:	ea4f 4910 	mov.w	r9, r0, lsr #16
 8001d18:	b280      	uxth	r0, r0
 8001d1a:	fb07 f203 	mul.w	r2, r7, r3
 8001d1e:	ea4f 4e1e 	mov.w	lr, lr, lsr #16
 8001d22:	19ab      	adds	r3, r5, r6
 8001d24:	ea4f 4a11 	mov.w	sl, r1, lsr #16
 8001d28:	fb07 f509 	mul.w	r5, r7, r9
 8001d2c:	fb04 f600 	mul.w	r6, r4, r0
 8001d30:	eb4a 010e 	adc.w	r1, sl, lr
 8001d34:	fb04 fc0c 	mul.w	ip, r4, ip
 8001d38:	189b      	adds	r3, r3, r2
 8001d3a:	ea4f 4e05 	mov.w	lr, r5, lsl #16
 8001d3e:	ea4f 4206 	mov.w	r2, r6, lsl #16
 8001d42:	eb41 010c 	adc.w	r1, r1, ip
 8001d46:	fb07 f700 	mul.w	r7, r7, r0
 8001d4a:	eb1e 0202 	adds.w	r2, lr, r2
 8001d4e:	ea4f 4616 	mov.w	r6, r6, lsr #16
 8001d52:	ea4f 4515 	mov.w	r5, r5, lsr #16
 8001d56:	eb46 0505 	adc.w	r5, r6, r5
 8001d5a:	fb04 f409 	mul.w	r4, r4, r9
 8001d5e:	19d2      	adds	r2, r2, r7
 8001d60:	9204      	str	r2, [sp, #16]
 8001d62:	eb45 0204 	adc.w	r2, r5, r4
 8001d66:	9205      	str	r2, [sp, #20]
 8001d68:	e9dd 4504 	ldrd	r4, r5, [sp, #16]
 8001d6c:	1864      	adds	r4, r4, r1
 8001d6e:	e9cd 3412 	strd	r3, r4, [sp, #72]	; 0x48
 8001d72:	f145 0500 	adc.w	r5, r5, #0
 8001d76:	2300      	movs	r3, #0
 8001d78:	9514      	str	r5, [sp, #80]	; 0x50
 8001d7a:	f108 0208 	add.w	r2, r8, #8
 8001d7e:	f108 0e14 	add.w	lr, r8, #20
 8001d82:	af0e      	add	r7, sp, #56	; 0x38
 8001d84:	ae12      	add	r6, sp, #72	; 0x48
 8001d86:	461c      	mov	r4, r3
 8001d88:	2100      	movs	r1, #0
 8001d8a:	f857 0b04 	ldr.w	r0, [r7], #4
 8001d8e:	f856 5b04 	ldr.w	r5, [r6], #4
 8001d92:	468a      	mov	sl, r1
 8001d94:	6811      	ldr	r1, [r2, #0]
 8001d96:	eb10 0901 	adds.w	r9, r0, r1
 8001d9a:	f14a 0a00 	adc.w	sl, sl, #0
 8001d9e:	eb19 0005 	adds.w	r0, r9, r5
 8001da2:	f14a 0100 	adc.w	r1, sl, #0
 8001da6:	18c3      	adds	r3, r0, r3
 8001da8:	f842 3b04 	str.w	r3, [r2], #4
 8001dac:	eb41 0304 	adc.w	r3, r1, r4
 8001db0:	4596      	cmp	lr, r2
 8001db2:	f04f 0400 	mov.w	r4, #0
 8001db6:	d1e7      	bne.n	8001d88 <multiply96x96_c+0x2d0>
 8001db8:	9a00      	ldr	r2, [sp, #0]
 8001dba:	4413      	add	r3, r2
 8001dbc:	f8c8 3014 	str.w	r3, [r8, #20]
 8001dc0:	b017      	add	sp, #92	; 0x5c
 8001dc2:	e8bd 8ff0 	ldmia.w	sp!, {r4, r5, r6, r7, r8, r9, sl, fp, pc}
 8001dc6:	bf00      	nop

08001dc8 <square96_c>:
 8001dc8:	e92d 4ff0 	stmdb	sp!, {r4, r5, r6, r7, r8, r9, sl, fp, lr}
 8001dcc:	880d      	ldrh	r5, [r1, #0]
 8001dce:	884c      	ldrh	r4, [r1, #2]
 8001dd0:	688b      	ldr	r3, [r1, #8]
 8001dd2:	fb05 f404 	mul.w	r4, r5, r4
 8001dd6:	ea4f 39d4 	mov.w	r9, r4, lsr #15
 8001dda:	ea4f 4844 	mov.w	r8, r4, lsl #17
 8001dde:	fbe5 8905 	umlal	r8, r9, r5, r5
 8001de2:	f8c0 8000 	str.w	r8, [r0]
 8001de6:	880f      	ldrh	r7, [r1, #0]
 8001de8:	88cc      	ldrh	r4, [r1, #6]
 8001dea:	f8b1 e002 	ldrh.w	lr, [r1, #2]
 8001dee:	f8b1 c004 	ldrh.w	ip, [r1, #4]
 8001df2:	fb07 f404 	mul.w	r4, r7, r4
 8001df6:	2500      	movs	r5, #0
 8001df8:	b08f      	sub	sp, #60	; 0x3c
 8001dfa:	fbec 450e 	umlal	r4, r5, ip, lr
 8001dfe:	e9cd 4500 	strd	r4, r5, [sp]
 8001e02:	9c00      	ldr	r4, [sp, #0]
 8001e04:	fb07 fc0c 	mul.w	ip, r7, ip
 8001e08:	f04f 0a02 	mov.w	sl, #2
 8001e0c:	fb0e f60e 	mul.w	r6, lr, lr
 8001e10:	2700      	movs	r7, #0
 8001e12:	fbea 670c 	umlal	r6, r7, sl, ip
 8001e16:	ea4f 4c45 	mov.w	ip, r5, lsl #17
 8001e1a:	0465      	lsls	r5, r4, #17
 8001e1c:	19ad      	adds	r5, r5, r6
 8001e1e:	ea4c 3cd4 	orr.w	ip, ip, r4, lsr #15
 8001e22:	eb4c 0c07 	adc.w	ip, ip, r7
 8001e26:	eb15 0509 	adds.w	r5, r5, r9
 8001e2a:	6045      	str	r5, [r0, #4]
 8001e2c:	888f      	ldrh	r7, [r1, #4]
 8001e2e:	f8b1 9006 	ldrh.w	r9, [r1, #6]
 8001e32:	f8b1 e002 	ldrh.w	lr, [r1, #2]
 8001e36:	fb09 f807 	mul.w	r8, r9, r7
 8001e3a:	fb09 fe0e 	mul.w	lr, r9, lr
 8001e3e:	ea4f 35d8 	mov.w	r5, r8, lsr #15
 8001e42:	ea4f 4448 	mov.w	r4, r8, lsl #17
 8001e46:	f04f 0200 	mov.w	r2, #0
 8001e4a:	fbea 450e 	umlal	r4, r5, sl, lr
 8001e4e:	fbe7 4507 	umlal	r4, r5, r7, r7
 8001e52:	eb4c 0c02 	adc.w	ip, ip, r2
 8001e56:	fa1f fe83 	uxth.w	lr, r3
 8001e5a:	0c1f      	lsrs	r7, r3, #16
 8001e5c:	eb14 030c 	adds.w	r3, r4, ip
 8001e60:	461c      	mov	r4, r3
 8001e62:	6084      	str	r4, [r0, #8]
 8001e64:	fb07 f30e 	mul.w	r3, r7, lr
 8001e68:	f8b1 c006 	ldrh.w	ip, [r1, #6]
 8001e6c:	9409      	str	r4, [sp, #36]	; 0x24
 8001e6e:	ea4f 4403 	mov.w	r4, r3, lsl #16
 8001e72:	eb45 0602 	adc.w	r6, r5, r2
 8001e76:	fb0e f80e 	mul.w	r8, lr, lr
 8001e7a:	1924      	adds	r4, r4, r4
 8001e7c:	ea4f 4313 	mov.w	r3, r3, lsr #16
 8001e80:	fb0c 6c0c 	mla	ip, ip, ip, r6
 8001e84:	415b      	adcs	r3, r3
 8001e86:	eb14 0408 	adds.w	r4, r4, r8
 8001e8a:	e9c0 c403 	strd	ip, r4, [r0, #12]
 8001e8e:	fb07 f507 	mul.w	r5, r7, r7
 8001e92:	eb45 0303 	adc.w	r3, r5, r3
 8001e96:	6143      	str	r3, [r0, #20]
 8001e98:	e9d1 4500 	ldrd	r4, r5, [r1]
 8001e9c:	fa1f fa84 	uxth.w	sl, r4
 8001ea0:	ea4f 4814 	mov.w	r8, r4, lsr #16
 8001ea4:	fb0e f408 	mul.w	r4, lr, r8
 8001ea8:	fb07 f90a 	mul.w	r9, r7, sl
 8001eac:	ea4f 4b09 	mov.w	fp, r9, lsl #16
 8001eb0:	0426      	lsls	r6, r4, #16
 8001eb2:	fb0e fa0a 	mul.w	sl, lr, sl
 8001eb6:	eb16 060b 	adds.w	r6, r6, fp
 8001eba:	ea4f 4919 	mov.w	r9, r9, lsr #16
 8001ebe:	ea4f 4b15 	mov.w	fp, r5, lsr #16
 8001ec2:	ea4f 4414 	mov.w	r4, r4, lsr #16
 8001ec6:	b2ad      	uxth	r5, r5
 8001ec8:	fb07 f808 	mul.w	r8, r7, r8
 8001ecc:	eb44 0409 	adc.w	r4, r4, r9
 8001ed0:	eb16 060a 	adds.w	r6, r6, sl
 8001ed4:	fb0e f90b 	mul.w	r9, lr, fp
 8001ed8:	fb07 fa05 	mul.w	sl, r7, r5
 8001edc:	eb44 0408 	adc.w	r4, r4, r8
 8001ee0:	fb0e f505 	mul.w	r5, lr, r5
 8001ee4:	ea4f 4809 	mov.w	r8, r9, lsl #16
 8001ee8:	ea4f 4e0a 	mov.w	lr, sl, lsl #16
 8001eec:	eb18 080e 	adds.w	r8, r8, lr
 8001ef0:	ea4f 4a1a 	mov.w	sl, sl, lsr #16
 8001ef4:	ea4f 4919 	mov.w	r9, r9, lsr #16
 8001ef8:	eb49 090a 	adc.w	r9, r9, sl
 8001efc:	fb07 f70b 	mul.w	r7, r7, fp
 8001f00:	eb18 0505 	adds.w	r5, r8, r5
 8001f04:	eb49 0707 	adc.w	r7, r9, r7
 8001f08:	9502      	str	r5, [sp, #8]
 8001f0a:	9703      	str	r7, [sp, #12]
 8001f0c:	e9dd 8902 	ldrd	r8, r9, [sp, #8]
 8001f10:	eb18 0804 	adds.w	r8, r8, r4
 8001f14:	f149 0900 	adc.w	r9, r9, #0
 8001f18:	eb18 0708 	adds.w	r7, r8, r8
 8001f1c:	9704      	str	r7, [sp, #16]
 8001f1e:	9c09      	ldr	r4, [sp, #36]	; 0x24
 8001f20:	6901      	ldr	r1, [r0, #16]
 8001f22:	9200      	str	r2, [sp, #0]
 8001f24:	eb42 0702 	adc.w	r7, r2, r2
 8001f28:	9705      	str	r7, [sp, #20]
 8001f2a:	4615      	mov	r5, r2
 8001f2c:	f04f 0a02 	mov.w	sl, #2
 8001f30:	fbea 4506 	umlal	r4, r5, sl, r6
 8001f34:	e9dd 6704 	ldrd	r6, r7, [sp, #16]
 8001f38:	eb16 060c 	adds.w	r6, r6, ip
 8001f3c:	f147 0700 	adc.w	r7, r7, #0
 8001f40:	1975      	adds	r5, r6, r5
 8001f42:	eb47 0c02 	adc.w	ip, r7, r2
 8001f46:	46a2      	mov	sl, r4
 8001f48:	eb19 0409 	adds.w	r4, r9, r9
 8001f4c:	9406      	str	r4, [sp, #24]
 8001f4e:	eb42 0402 	adc.w	r4, r2, r2
 8001f52:	9407      	str	r4, [sp, #28]
 8001f54:	e9dd 6706 	ldrd	r6, r7, [sp, #24]
 8001f58:	1876      	adds	r6, r6, r1
 8001f5a:	f147 0700 	adc.w	r7, r7, #0
 8001f5e:	eb16 010c 	adds.w	r1, r6, ip
 8001f62:	4696      	mov	lr, r2
 8001f64:	eb47 0202 	adc.w	r2, r7, r2
 8001f68:	4413      	add	r3, r2
 8001f6a:	e9c0 a502 	strd	sl, r5, [r0, #8]
 8001f6e:	e9c0 1304 	strd	r1, r3, [r0, #16]
 8001f72:	b00f      	add	sp, #60	; 0x3c
 8001f74:	e8bd 8ff0 	ldmia.w	sp!, {r4, r5, r6, r7, r8, r9, sl, fp, pc}

08001f78 <square128_c>:
 8001f78:	e92d 4ff0 	stmdb	sp!, {r4, r5, r6, r7, r8, r9, sl, fp, lr}
 8001f7c:	880a      	ldrh	r2, [r1, #0]
 8001f7e:	884b      	ldrh	r3, [r1, #2]
 8001f80:	fb02 f303 	mul.w	r3, r2, r3
 8001f84:	0bdf      	lsrs	r7, r3, #15
 8001f86:	045e      	lsls	r6, r3, #17
 8001f88:	fbe2 6702 	umlal	r6, r7, r2, r2
 8001f8c:	b097      	sub	sp, #92	; 0x5c
 8001f8e:	6006      	str	r6, [r0, #0]
 8001f90:	f8b1 c000 	ldrh.w	ip, [r1]
 8001f94:	88ca      	ldrh	r2, [r1, #6]
 8001f96:	e9cd 6700 	strd	r6, r7, [sp]
 8001f9a:	888e      	ldrh	r6, [r1, #4]
 8001f9c:	4686      	mov	lr, r0
 8001f9e:	fb0c f306 	mul.w	r3, ip, r6
 8001fa2:	8848      	ldrh	r0, [r1, #2]
 8001fa4:	18dc      	adds	r4, r3, r3
 8001fa6:	fb0c f202 	mul.w	r2, ip, r2
 8001faa:	f04f 0300 	mov.w	r3, #0
 8001fae:	f04f 0c00 	mov.w	ip, #0
 8001fb2:	fbe6 2300 	umlal	r2, r3, r6, r0
 8001fb6:	eb4c 050c 	adc.w	r5, ip, ip
 8001fba:	fbe0 4500 	umlal	r4, r5, r0, r0
 8001fbe:	4692      	mov	sl, r2
 8001fc0:	0456      	lsls	r6, r2, #17
 8001fc2:	0458      	lsls	r0, r3, #17
 8001fc4:	9b01      	ldr	r3, [sp, #4]
 8001fc6:	1936      	adds	r6, r6, r4
 8001fc8:	ea40 30da 	orr.w	r0, r0, sl, lsr #15
 8001fcc:	eb45 0000 	adc.w	r0, r5, r0
 8001fd0:	18f6      	adds	r6, r6, r3
 8001fd2:	f8ce 6004 	str.w	r6, [lr, #4]
 8001fd6:	888c      	ldrh	r4, [r1, #4]
 8001fd8:	88cd      	ldrh	r5, [r1, #6]
 8001fda:	884f      	ldrh	r7, [r1, #2]
 8001fdc:	fb05 f604 	mul.w	r6, r5, r4
 8001fe0:	ea4f 33d6 	mov.w	r3, r6, lsr #15
 8001fe4:	fb05 f507 	mul.w	r5, r5, r7
 8001fe8:	ea4f 4246 	mov.w	r2, r6, lsl #17
 8001fec:	f04f 0602 	mov.w	r6, #2
 8001ff0:	fbe6 2305 	umlal	r2, r3, r6, r5
 8001ff4:	fbe4 2304 	umlal	r2, r3, r4, r4
 8001ff8:	eb40 000c 	adc.w	r0, r0, ip
 8001ffc:	461d      	mov	r5, r3
 8001ffe:	1813      	adds	r3, r2, r0
 8002000:	f8ce 3008 	str.w	r3, [lr, #8]
 8002004:	88ca      	ldrh	r2, [r1, #6]
 8002006:	9311      	str	r3, [sp, #68]	; 0x44
 8002008:	eb45 030c 	adc.w	r3, r5, ip
 800200c:	fb02 3202 	mla	r2, r2, r2, r3
 8002010:	f8ce 200c 	str.w	r2, [lr, #12]
 8002014:	890c      	ldrh	r4, [r1, #8]
 8002016:	8948      	ldrh	r0, [r1, #10]
 8002018:	920d      	str	r2, [sp, #52]	; 0x34
 800201a:	fb04 f000 	mul.w	r0, r4, r0
 800201e:	0bc3      	lsrs	r3, r0, #15
 8002020:	0442      	lsls	r2, r0, #17
 8002022:	46e2      	mov	sl, ip
 8002024:	4693      	mov	fp, r2
 8002026:	469c      	mov	ip, r3
 8002028:	fbe4 bc04 	umlal	fp, ip, r4, r4
 800202c:	f8ce b010 	str.w	fp, [lr, #16]
 8002030:	898c      	ldrh	r4, [r1, #12]
 8002032:	890a      	ldrh	r2, [r1, #8]
 8002034:	89cd      	ldrh	r5, [r1, #14]
 8002036:	8948      	ldrh	r0, [r1, #10]
 8002038:	fb02 f304 	mul.w	r3, r2, r4
 800203c:	eb13 0803 	adds.w	r8, r3, r3
 8002040:	fb02 f205 	mul.w	r2, r2, r5
 8002044:	f04f 0300 	mov.w	r3, #0
 8002048:	fbe4 2300 	umlal	r2, r3, r4, r0
 800204c:	eb4a 090a 	adc.w	r9, sl, sl
 8002050:	fbe0 8900 	umlal	r8, r9, r0, r0
 8002054:	0456      	lsls	r6, r2, #17
 8002056:	0458      	lsls	r0, r3, #17
 8002058:	eb16 0608 	adds.w	r6, r6, r8
 800205c:	ea40 30d2 	orr.w	r0, r0, r2, lsr #15
 8002060:	eb40 0009 	adc.w	r0, r0, r9
 8002064:	eb16 040c 	adds.w	r4, r6, ip
 8002068:	f8ce 4014 	str.w	r4, [lr, #20]
 800206c:	89cf      	ldrh	r7, [r1, #14]
 800206e:	940f      	str	r4, [sp, #60]	; 0x3c
 8002070:	898c      	ldrh	r4, [r1, #12]
 8002072:	894d      	ldrh	r5, [r1, #10]
 8002074:	fb07 f604 	mul.w	r6, r7, r4
 8002078:	fb07 f505 	mul.w	r5, r7, r5
 800207c:	ea4f 33d6 	mov.w	r3, r6, lsr #15
 8002080:	ea4f 4246 	mov.w	r2, r6, lsl #17
 8002084:	f04f 0702 	mov.w	r7, #2
 8002088:	fbe7 2305 	umlal	r2, r3, r7, r5
 800208c:	fbe4 2304 	umlal	r2, r3, r4, r4
 8002090:	eb40 000a 	adc.w	r0, r0, sl
 8002094:	1810      	adds	r0, r2, r0
 8002096:	e9cd bc0a 	strd	fp, ip, [sp, #40]	; 0x28
 800209a:	9010      	str	r0, [sp, #64]	; 0x40
 800209c:	f8ce 0018 	str.w	r0, [lr, #24]
 80020a0:	89ca      	ldrh	r2, [r1, #14]
 80020a2:	eb43 030a 	adc.w	r3, r3, sl
 80020a6:	fb02 3202 	mla	r2, r2, r2, r3
 80020aa:	f8ce 201c 	str.w	r2, [lr, #28]
 80020ae:	f8b1 9008 	ldrh.w	r9, [r1, #8]
 80020b2:	f8b1 8002 	ldrh.w	r8, [r1, #2]
 80020b6:	880a      	ldrh	r2, [r1, #0]
 80020b8:	8948      	ldrh	r0, [r1, #10]
 80020ba:	f8b1 c004 	ldrh.w	ip, [r1, #4]
 80020be:	89cf      	ldrh	r7, [r1, #14]
 80020c0:	88cd      	ldrh	r5, [r1, #6]
 80020c2:	f8b1 b00c 	ldrh.w	fp, [r1, #12]
 80020c6:	680e      	ldr	r6, [r1, #0]
 80020c8:	9600      	str	r6, [sp, #0]
 80020ca:	fb08 f309 	mul.w	r3, r8, r9
 80020ce:	9304      	str	r3, [sp, #16]
 80020d0:	fb00 f402 	mul.w	r4, r0, r2
 80020d4:	fb09 f902 	mul.w	r9, r9, r2
 80020d8:	9a04      	ldr	r2, [sp, #16]
 80020da:	970c      	str	r7, [sp, #48]	; 0x30
 80020dc:	fb07 f60c 	mul.w	r6, r7, ip
 80020e0:	0423      	lsls	r3, r4, #16
 80020e2:	0412      	lsls	r2, r2, #16
 80020e4:	2700      	movs	r7, #0
 80020e6:	fbeb 6705 	umlal	r6, r7, fp, r5
 80020ea:	9508      	str	r5, [sp, #32]
 80020ec:	189d      	adds	r5, r3, r2
 80020ee:	9b04      	ldr	r3, [sp, #16]
 80020f0:	ea4f 4313 	mov.w	r3, r3, lsr #16
 80020f4:	9304      	str	r3, [sp, #16]
 80020f6:	fb00 f808 	mul.w	r8, r0, r8
 80020fa:	9804      	ldr	r0, [sp, #16]
 80020fc:	ea4f 4307 	mov.w	r3, r7, lsl #16
 8002100:	ea4f 4414 	mov.w	r4, r4, lsr #16
 8002104:	eb40 0404 	adc.w	r4, r0, r4
 8002108:	ea43 4316 	orr.w	r3, r3, r6, lsr #16
 800210c:	eb15 0909 	adds.w	r9, r5, r9
 8002110:	ea4f 4206 	mov.w	r2, r6, lsl #16
 8002114:	eb44 0008 	adc.w	r0, r4, r8
 8002118:	461c      	mov	r4, r3
 800211a:	4613      	mov	r3, r2
 800211c:	fbec 340b 	umlal	r3, r4, ip, fp
 8002120:	eb10 0509 	adds.w	r5, r0, r9
 8002124:	eb4a 020a 	adc.w	r2, sl, sl
 8002128:	eb15 0c03 	adds.w	ip, r5, r3
 800212c:	eb42 020a 	adc.w	r2, r2, sl
 8002130:	18c0      	adds	r0, r0, r3
 8002132:	e9cd 3404 	strd	r3, r4, [sp, #16]
 8002136:	f8cd c038 	str.w	ip, [sp, #56]	; 0x38
 800213a:	eb4a 040a 	adc.w	r4, sl, sl
 800213e:	eb12 0c00 	adds.w	ip, r2, r0
 8002142:	9f0c      	ldr	r7, [sp, #48]	; 0x30
 8002144:	9b05      	ldr	r3, [sp, #20]
 8002146:	f8cd c008 	str.w	ip, [sp, #8]
 800214a:	9d08      	ldr	r5, [sp, #32]
 800214c:	eb4a 0c04 	adc.w	ip, sl, r4
 8002150:	f8cd c00c 	str.w	ip, [sp, #12]
 8002154:	fb07 3505 	mla	r5, r7, r5, r3
 8002158:	e9dd 7802 	ldrd	r7, r8, [sp, #8]
 800215c:	1d08      	adds	r0, r1, #4
 800215e:	c813      	ldmia	r0, {r0, r1, r4}
 8002160:	197f      	adds	r7, r7, r5
 8002162:	463a      	mov	r2, r7
 8002164:	9f00      	ldr	r7, [sp, #0]
 8002166:	f148 0800 	adc.w	r8, r8, #0
 800216a:	1a3e      	subs	r6, r7, r0
 800216c:	4445      	add	r5, r8
 800216e:	e9cd 2514 	strd	r2, r5, [sp, #80]	; 0x50
 8002172:	4633      	mov	r3, r6
 8002174:	9d00      	ldr	r5, [sp, #0]
 8002176:	9302      	str	r3, [sp, #8]
 8002178:	1a63      	subs	r3, r4, r1
 800217a:	46d3      	mov	fp, sl
 800217c:	eba4 0a01 	sub.w	sl, r4, r1
 8002180:	eb64 0404 	sbc.w	r4, r4, r4
 8002184:	1a28      	subs	r0, r5, r0
 8002186:	eb65 0105 	sbc.w	r1, r5, r5
 800218a:	e9cd 0104 	strd	r0, r1, [sp, #16]
 800218e:	e9cd 3408 	strd	r3, r4, [sp, #32]
 8002192:	e9dd 0114 	ldrd	r0, r1, [sp, #80]	; 0x50
 8002196:	9b02      	ldr	r3, [sp, #8]
 8002198:	f8bd 8008 	ldrh.w	r8, [sp, #8]
 800219c:	4023      	ands	r3, r4
 800219e:	1ac0      	subs	r0, r0, r3
 80021a0:	ea4f 4c16 	mov.w	ip, r6, lsr #16
 80021a4:	fa1f f78a 	uxth.w	r7, sl
 80021a8:	ea4f 461a 	mov.w	r6, sl, lsr #16
 80021ac:	f161 0100 	sbc.w	r1, r1, #0
 80021b0:	e9cd 0100 	strd	r0, r1, [sp]
 80021b4:	fb0c f207 	mul.w	r2, ip, r7
 80021b8:	fb06 f008 	mul.w	r0, r6, r8
 80021bc:	1814      	adds	r4, r2, r0
 80021be:	f04f 0300 	mov.w	r3, #0
 80021c2:	e9dd 1200 	ldrd	r1, r2, [sp]
 80021c6:	f143 0500 	adc.w	r5, r3, #0
 80021ca:	9b05      	ldr	r3, [sp, #20]
 80021cc:	ea0a 0a03 	and.w	sl, sl, r3
 80021d0:	ebb1 010a 	subs.w	r1, r1, sl
 80021d4:	f162 0200 	sbc.w	r2, r2, #0
 80021d8:	e9cd 1200 	strd	r1, r2, [sp]
 80021dc:	9909      	ldr	r1, [sp, #36]	; 0x24
 80021de:	9801      	ldr	r0, [sp, #4]
 80021e0:	468a      	mov	sl, r1
 80021e2:	9905      	ldr	r1, [sp, #20]
 80021e4:	042b      	lsls	r3, r5, #16
 80021e6:	fb0a 0101 	mla	r1, sl, r1, r0
 80021ea:	9d00      	ldr	r5, [sp, #0]
 80021ec:	9115      	str	r1, [sp, #84]	; 0x54
 80021ee:	9514      	str	r5, [sp, #80]	; 0x50
 80021f0:	fb07 f708 	mul.w	r7, r7, r8
 80021f4:	0422      	lsls	r2, r4, #16
 80021f6:	19d2      	adds	r2, r2, r7
 80021f8:	990e      	ldr	r1, [sp, #56]	; 0x38
 80021fa:	e9dd 7814 	ldrd	r7, r8, [sp, #80]	; 0x50
 80021fe:	ea43 4314 	orr.w	r3, r3, r4, lsr #16
 8002202:	f143 0300 	adc.w	r3, r3, #0
 8002206:	fb0c 3606 	mla	r6, ip, r6, r3
 800220a:	1889      	adds	r1, r1, r2
 800220c:	eb4b 040b 	adc.w	r4, fp, fp
 8002210:	19bf      	adds	r7, r7, r6
 8002212:	f148 0800 	adc.w	r8, r8, #0
 8002216:	9e11      	ldr	r6, [sp, #68]	; 0x44
 8002218:	9a0d      	ldr	r2, [sp, #52]	; 0x34
 800221a:	193c      	adds	r4, r7, r4
 800221c:	eb48 030b 	adc.w	r3, r8, fp
 8002220:	eb19 0509 	adds.w	r5, r9, r9
 8002224:	eb4b 000b 	adc.w	r0, fp, fp
 8002228:	1975      	adds	r5, r6, r5
 800222a:	eb4b 0600 	adc.w	r6, fp, r0
 800222e:	eb11 0c01 	adds.w	ip, r1, r1
 8002232:	f8cd c018 	str.w	ip, [sp, #24]
 8002236:	eb4b 0c0b 	adc.w	ip, fp, fp
 800223a:	f8cd c01c 	str.w	ip, [sp, #28]
 800223e:	e9dd 7806 	ldrd	r7, r8, [sp, #24]
 8002242:	18bf      	adds	r7, r7, r2
 8002244:	980a      	ldr	r0, [sp, #40]	; 0x28
 8002246:	f148 0800 	adc.w	r8, r8, #0
 800224a:	19be      	adds	r6, r7, r6
 800224c:	eb48 020b 	adc.w	r2, r8, fp
 8002250:	1924      	adds	r4, r4, r4
 8002252:	4617      	mov	r7, r2
 8002254:	eb4b 0c0b 	adc.w	ip, fp, fp
 8002258:	1822      	adds	r2, r4, r0
 800225a:	980f      	ldr	r0, [sp, #60]	; 0x3c
 800225c:	eb4c 040b 	adc.w	r4, ip, fp
 8002260:	4659      	mov	r1, fp
 8002262:	19d2      	adds	r2, r2, r7
 8002264:	f04f 0702 	mov.w	r7, #2
 8002268:	fbe7 0103 	umlal	r0, r1, r7, r3
 800226c:	eb44 040b 	adc.w	r4, r4, fp
 8002270:	1904      	adds	r4, r0, r4
 8002272:	465b      	mov	r3, fp
 8002274:	eb41 0303 	adc.w	r3, r1, r3
 8002278:	9910      	ldr	r1, [sp, #64]	; 0x40
 800227a:	f8ce 2010 	str.w	r2, [lr, #16]
 800227e:	18cb      	adds	r3, r1, r3
 8002280:	e9ce 5602 	strd	r5, r6, [lr, #8]
 8002284:	e9ce 4305 	strd	r4, r3, [lr, #20]
 8002288:	b017      	add	sp, #92	; 0x5c
 800228a:	e8bd 8ff0 	ldmia.w	sp!, {r4, r5, r6, r7, r8, r9, sl, fp, pc}
 800228e:	bf00      	nop

08002290 <multiply128x128_c>:
 8002290:	e92d 4ff0 	stmdb	sp!, {r4, r5, r6, r7, r8, r9, sl, fp, lr}
 8002294:	688c      	ldr	r4, [r1, #8]
 8002296:	680b      	ldr	r3, [r1, #0]
 8002298:	68cd      	ldr	r5, [r1, #12]
 800229a:	f8d2 b004 	ldr.w	fp, [r2, #4]
 800229e:	6816      	ldr	r6, [r2, #0]
 80022a0:	6897      	ldr	r7, [r2, #8]
 80022a2:	6849      	ldr	r1, [r1, #4]
 80022a4:	b0b9      	sub	sp, #228	; 0xe4
 80022a6:	9506      	str	r5, [sp, #24]
 80022a8:	68d5      	ldr	r5, [r2, #12]
 80022aa:	950c      	str	r5, [sp, #48]	; 0x30
 80022ac:	4622      	mov	r2, r4
 80022ae:	1ad2      	subs	r2, r2, r3
 80022b0:	940a      	str	r4, [sp, #40]	; 0x28
 80022b2:	461c      	mov	r4, r3
 80022b4:	eb62 0302 	sbc.w	r3, r2, r2
 80022b8:	1bf5      	subs	r5, r6, r7
 80022ba:	9108      	str	r1, [sp, #32]
 80022bc:	4631      	mov	r1, r6
 80022be:	eb66 0606 	sbc.w	r6, r6, r6
 80022c2:	e9cd 5600 	strd	r5, r6, [sp]
 80022c6:	fa1f fc84 	uxth.w	ip, r4
 80022ca:	0c0d      	lsrs	r5, r1, #16
 80022cc:	4698      	mov	r8, r3
 80022ce:	ea4f 79e3 	mov.w	r9, r3, asr #31
 80022d2:	fb0c f305 	mul.w	r3, ip, r5
 80022d6:	931a      	str	r3, [sp, #104]	; 0x68
 80022d8:	910b      	str	r1, [sp, #44]	; 0x2c
 80022da:	9b06      	ldr	r3, [sp, #24]
 80022dc:	f8bd 102c 	ldrh.w	r1, [sp, #44]	; 0x2c
 80022e0:	9e01      	ldr	r6, [sp, #4]
 80022e2:	940d      	str	r4, [sp, #52]	; 0x34
 80022e4:	eb18 0203 	adds.w	r2, r8, r3
 80022e8:	ea4f 4414 	mov.w	r4, r4, lsr #16
 80022ec:	fb01 fa04 	mul.w	sl, r1, r4
 80022f0:	f149 0300 	adc.w	r3, r9, #0
 80022f4:	e9cd 2300 	strd	r2, r3, [sp]
 80022f8:	9702      	str	r7, [sp, #8]
 80022fa:	ea4f 490a 	mov.w	r9, sl, lsl #16
 80022fe:	17f7      	asrs	r7, r6, #31
 8002300:	eb16 060b 	adds.w	r6, r6, fp
 8002304:	f147 0700 	adc.w	r7, r7, #0
 8002308:	f8cd 906c 	str.w	r9, [sp, #108]	; 0x6c
 800230c:	e9dd 8900 	ldrd	r8, r9, [sp]
 8002310:	e9cd 6704 	strd	r6, r7, [sp, #16]
 8002314:	9e08      	ldr	r6, [sp, #32]
 8002316:	9f1a      	ldr	r7, [sp, #104]	; 0x68
 8002318:	ebb8 0806 	subs.w	r8, r8, r6
 800231c:	f169 0900 	sbc.w	r9, r9, #0
 8002320:	e9cd 8900 	strd	r8, r9, [sp]
 8002324:	ea4f 431b 	mov.w	r3, fp, lsr #16
 8002328:	e9dd 8904 	ldrd	r8, r9, [sp, #16]
 800232c:	931a      	str	r3, [sp, #104]	; 0x68
 800232e:	9b0c      	ldr	r3, [sp, #48]	; 0x30
 8002330:	ebb8 0803 	subs.w	r8, r8, r3
 8002334:	f169 0900 	sbc.w	r9, r9, #0
 8002338:	e9cd 8904 	strd	r8, r9, [sp, #16]
 800233c:	fa1f fe86 	uxth.w	lr, r6
 8002340:	fb0c f901 	mul.w	r9, ip, r1
 8002344:	9e1b      	ldr	r6, [sp, #108]	; 0x6c
 8002346:	991a      	ldr	r1, [sp, #104]	; 0x68
 8002348:	043a      	lsls	r2, r7, #16
 800234a:	1992      	adds	r2, r2, r6
 800234c:	fb0e f601 	mul.w	r6, lr, r1
 8002350:	9908      	ldr	r1, [sp, #32]
 8002352:	fa1f fc8b 	uxth.w	ip, fp
 8002356:	ea4f 4717 	mov.w	r7, r7, lsr #16
 800235a:	ea4f 431a 	mov.w	r3, sl, lsr #16
 800235e:	ea4f 4111 	mov.w	r1, r1, lsr #16
 8002362:	fb05 f404 	mul.w	r4, r5, r4
 8002366:	eb47 0303 	adc.w	r3, r7, r3
 800236a:	eb12 0209 	adds.w	r2, r2, r9
 800236e:	fb0c f901 	mul.w	r9, ip, r1
 8002372:	eb44 0303 	adc.w	r3, r4, r3
 8002376:	2700      	movs	r7, #0
 8002378:	eb16 0609 	adds.w	r6, r6, r9
 800237c:	f147 0700 	adc.w	r7, r7, #0
 8002380:	fb0c fc0e 	mul.w	ip, ip, lr
 8002384:	0434      	lsls	r4, r6, #16
 8002386:	043d      	lsls	r5, r7, #16
 8002388:	eb14 090c 	adds.w	r9, r4, ip
 800238c:	ea45 4516 	orr.w	r5, r5, r6, lsr #16
 8002390:	f04f 0e00 	mov.w	lr, #0
 8002394:	f145 0a00 	adc.w	sl, r5, #0
 8002398:	189e      	adds	r6, r3, r2
 800239a:	921b      	str	r2, [sp, #108]	; 0x6c
 800239c:	eb4e 020e 	adc.w	r2, lr, lr
 80023a0:	eb16 0c09 	adds.w	ip, r6, r9
 80023a4:	eb42 020e 	adc.w	r2, r2, lr
 80023a8:	eb13 0309 	adds.w	r3, r3, r9
 80023ac:	f8cd c078 	str.w	ip, [sp, #120]	; 0x78
 80023b0:	eb4e 040e 	adc.w	r4, lr, lr
 80023b4:	eb12 0c03 	adds.w	ip, r2, r3
 80023b8:	9e08      	ldr	r6, [sp, #32]
 80023ba:	9b1a      	ldr	r3, [sp, #104]	; 0x68
 80023bc:	f8cd c058 	str.w	ip, [sp, #88]	; 0x58
 80023c0:	9d0d      	ldr	r5, [sp, #52]	; 0x34
 80023c2:	eb4e 0c04 	adc.w	ip, lr, r4
 80023c6:	f8cd c05c 	str.w	ip, [sp, #92]	; 0x5c
 80023ca:	fb03 a101 	mla	r1, r3, r1, sl
 80023ce:	1baf      	subs	r7, r5, r6
 80023d0:	e9dd 9a16 	ldrd	r9, sl, [sp, #88]	; 0x58
 80023d4:	9e0b      	ldr	r6, [sp, #44]	; 0x2c
 80023d6:	ebab 0606 	sub.w	r6, fp, r6
 80023da:	eb19 0901 	adds.w	r9, r9, r1
 80023de:	ea4f 4316 	mov.w	r3, r6, lsr #16
 80023e2:	931a      	str	r3, [sp, #104]	; 0x68
 80023e4:	f14a 0a00 	adc.w	sl, sl, #0
 80023e8:	9b0b      	ldr	r3, [sp, #44]	; 0x2c
 80023ea:	4451      	add	r1, sl
 80023ec:	e9cd 9126 	strd	r9, r1, [sp, #152]	; 0x98
 80023f0:	0c3d      	lsrs	r5, r7, #16
 80023f2:	ebbb 0903 	subs.w	r9, fp, r3
 80023f6:	fa1f fc87 	uxth.w	ip, r7
 80023fa:	b2b4      	uxth	r4, r6
 80023fc:	ea4f 4116 	mov.w	r1, r6, lsr #16
 8002400:	fb05 f204 	mul.w	r2, r5, r4
 8002404:	eb6b 0a0b 	sbc.w	sl, fp, fp
 8002408:	fb01 f80c 	mul.w	r8, r1, ip
 800240c:	e9cd 9a1c 	strd	r9, sl, [sp, #112]	; 0x70
 8002410:	4651      	mov	r1, sl
 8002412:	2300      	movs	r3, #0
 8002414:	eb12 0a08 	adds.w	sl, r2, r8
 8002418:	f143 0b00 	adc.w	fp, r3, #0
 800241c:	9a08      	ldr	r2, [sp, #32]
 800241e:	9b0d      	ldr	r3, [sp, #52]	; 0x34
 8002420:	400f      	ands	r7, r1
 8002422:	ebb3 0802 	subs.w	r8, r3, r2
 8002426:	e9dd 1226 	ldrd	r1, r2, [sp, #152]	; 0x98
 800242a:	eb63 0903 	sbc.w	r9, r3, r3
 800242e:	1bc9      	subs	r1, r1, r7
 8002430:	f162 0200 	sbc.w	r2, r2, #0
 8002434:	e9cd 1208 	strd	r1, r2, [sp, #32]
 8002438:	e9cd 8916 	strd	r8, r9, [sp, #88]	; 0x58
 800243c:	ea06 0809 	and.w	r8, r6, r9
 8002440:	e9dd 6708 	ldrd	r6, r7, [sp, #32]
 8002444:	ebb6 0608 	subs.w	r6, r6, r8
 8002448:	991d      	ldr	r1, [sp, #116]	; 0x74
 800244a:	46b0      	mov	r8, r6
 800244c:	9e17      	ldr	r6, [sp, #92]	; 0x5c
 800244e:	f167 0700 	sbc.w	r7, r7, #0
 8002452:	fb01 7706 	mla	r7, r1, r6, r7
 8002456:	e9cd 8726 	strd	r8, r7, [sp, #152]	; 0x98
 800245a:	fb04 f40c 	mul.w	r4, r4, ip
 800245e:	ea4f 420a 	mov.w	r2, sl, lsl #16
 8002462:	ea4f 430b 	mov.w	r3, fp, lsl #16
 8002466:	ea43 431a 	orr.w	r3, r3, sl, lsr #16
 800246a:	1911      	adds	r1, r2, r4
 800246c:	9c1e      	ldr	r4, [sp, #120]	; 0x78
 800246e:	e9dd ab26 	ldrd	sl, fp, [sp, #152]	; 0x98
 8002472:	f143 0200 	adc.w	r2, r3, #0
 8002476:	9b1a      	ldr	r3, [sp, #104]	; 0x68
 8002478:	1861      	adds	r1, r4, r1
 800247a:	911e      	str	r1, [sp, #120]	; 0x78
 800247c:	fb05 2103 	mla	r1, r5, r3, r2
 8002480:	9a0a      	ldr	r2, [sp, #40]	; 0x28
 8002482:	9f02      	ldr	r7, [sp, #8]
 8002484:	f8bd 4008 	ldrh.w	r4, [sp, #8]
 8002488:	eb4e 030e 	adc.w	r3, lr, lr
 800248c:	eb1a 0a01 	adds.w	sl, sl, r1
 8002490:	f14b 0b00 	adc.w	fp, fp, #0
 8002494:	eb1a 0603 	adds.w	r6, sl, r3
 8002498:	ea4f 4912 	mov.w	r9, r2, lsr #16
 800249c:	fa1f fc82 	uxth.w	ip, r2
 80024a0:	ea4f 4517 	mov.w	r5, r7, lsr #16
 80024a4:	961f      	str	r6, [sp, #124]	; 0x7c
 80024a6:	9e0c      	ldr	r6, [sp, #48]	; 0x30
 80024a8:	4673      	mov	r3, lr
 80024aa:	fb0c f205 	mul.w	r2, ip, r5
 80024ae:	fb04 f709 	mul.w	r7, r4, r9
 80024b2:	f8dd e018 	ldr.w	lr, [sp, #24]
 80024b6:	971a      	str	r7, [sp, #104]	; 0x68
 80024b8:	eb4b 0a03 	adc.w	sl, fp, r3
 80024bc:	0411      	lsls	r1, r2, #16
 80024be:	043f      	lsls	r7, r7, #16
 80024c0:	0c36      	lsrs	r6, r6, #16
 80024c2:	9608      	str	r6, [sp, #32]
 80024c4:	f8cd a058 	str.w	sl, [sp, #88]	; 0x58
 80024c8:	eb11 0a07 	adds.w	sl, r1, r7
 80024cc:	9f1a      	ldr	r7, [sp, #104]	; 0x68
 80024ce:	9908      	ldr	r1, [sp, #32]
 80024d0:	931c      	str	r3, [sp, #112]	; 0x70
 80024d2:	fa1f f88e 	uxth.w	r8, lr
 80024d6:	fb0c f404 	mul.w	r4, ip, r4
 80024da:	ea4f 4c1e 	mov.w	ip, lr, lsr #16
 80024de:	f8bd e030 	ldrh.w	lr, [sp, #48]	; 0x30
 80024e2:	ea4f 4717 	mov.w	r7, r7, lsr #16
 80024e6:	ea4f 4212 	mov.w	r2, r2, lsr #16
 80024ea:	fb08 f601 	mul.w	r6, r8, r1
 80024ee:	fb05 f509 	mul.w	r5, r5, r9
 80024f2:	eb47 0202 	adc.w	r2, r7, r2
 80024f6:	fb0e f90c 	mul.w	r9, lr, ip
 80024fa:	eb1a 0104 	adds.w	r1, sl, r4
 80024fe:	eb45 0202 	adc.w	r2, r5, r2
 8002502:	2700      	movs	r7, #0
 8002504:	eb16 0a09 	adds.w	sl, r6, r9
 8002508:	f147 0b00 	adc.w	fp, r7, #0
 800250c:	4656      	mov	r6, sl
 800250e:	465f      	mov	r7, fp
 8002510:	fb0e fe08 	mul.w	lr, lr, r8
 8002514:	043d      	lsls	r5, r7, #16
 8002516:	0434      	lsls	r4, r6, #16
 8002518:	eb14 040e 	adds.w	r4, r4, lr
 800251c:	ea45 451a 	orr.w	r5, r5, sl, lsr #16
 8002520:	f145 0500 	adc.w	r5, r5, #0
 8002524:	eb12 0e01 	adds.w	lr, r2, r1
 8002528:	911a      	str	r1, [sp, #104]	; 0x68
 800252a:	eb43 0103 	adc.w	r1, r3, r3
 800252e:	eb1e 0e04 	adds.w	lr, lr, r4
 8002532:	eb43 0101 	adc.w	r1, r3, r1
 8002536:	1912      	adds	r2, r2, r4
 8002538:	eb43 0403 	adc.w	r4, r3, r3
 800253c:	eb11 0902 	adds.w	r9, r1, r2
 8002540:	f8cd 9060 	str.w	r9, [sp, #96]	; 0x60
 8002544:	eb43 0904 	adc.w	r9, r3, r4
 8002548:	f8cd 9064 	str.w	r9, [sp, #100]	; 0x64
 800254c:	e9dd 9a18 	ldrd	r9, sl, [sp, #96]	; 0x60
 8002550:	9a08      	ldr	r2, [sp, #32]
 8002552:	990a      	ldr	r1, [sp, #40]	; 0x28
 8002554:	9c06      	ldr	r4, [sp, #24]
 8002556:	9b0c      	ldr	r3, [sp, #48]	; 0x30
 8002558:	fb02 5c0c 	mla	ip, r2, ip, r5
 800255c:	eb19 090c 	adds.w	r9, r9, ip
 8002560:	f14a 0a00 	adc.w	sl, sl, #0
 8002564:	eba1 0804 	sub.w	r8, r1, r4
 8002568:	eb0c 020a 	add.w	r2, ip, sl
 800256c:	9902      	ldr	r1, [sp, #8]
 800256e:	e9cd 922e 	strd	r9, r2, [sp, #184]	; 0xb8
 8002572:	1a5c      	subs	r4, r3, r1
 8002574:	0c22      	lsrs	r2, r4, #16
 8002576:	e9dd ab2e 	ldrd	sl, fp, [sp, #184]	; 0xb8
 800257a:	9208      	str	r2, [sp, #32]
 800257c:	1a5a      	subs	r2, r3, r1
 800257e:	eb63 0303 	sbc.w	r3, r3, r3
 8002582:	e9cd 2318 	strd	r2, r3, [sp, #96]	; 0x60
 8002586:	ea08 0703 	and.w	r7, r8, r3
 800258a:	fa1f fc84 	uxth.w	ip, r4
 800258e:	ea4f 4618 	mov.w	r6, r8, lsr #16
 8002592:	fa1f f588 	uxth.w	r5, r8
 8002596:	0c23      	lsrs	r3, r4, #16
 8002598:	ebba 0a07 	subs.w	sl, sl, r7
 800259c:	fb03 f805 	mul.w	r8, r3, r5
 80025a0:	960c      	str	r6, [sp, #48]	; 0x30
 80025a2:	fb06 f60c 	mul.w	r6, r6, ip
 80025a6:	f16b 0b00 	sbc.w	fp, fp, #0
 80025aa:	2700      	movs	r7, #0
 80025ac:	eb16 0908 	adds.w	r9, r6, r8
 80025b0:	9e0a      	ldr	r6, [sp, #40]	; 0x28
 80025b2:	4651      	mov	r1, sl
 80025b4:	f147 0a00 	adc.w	sl, r7, #0
 80025b8:	9f06      	ldr	r7, [sp, #24]
 80025ba:	46c8      	mov	r8, r9
 80025bc:	46d1      	mov	r9, sl
 80025be:	46b2      	mov	sl, r6
 80025c0:	ebba 0607 	subs.w	r6, sl, r7
 80025c4:	eb6a 070a 	sbc.w	r7, sl, sl
 80025c8:	403c      	ands	r4, r7
 80025ca:	ebb1 0a04 	subs.w	sl, r1, r4
 80025ce:	4649      	mov	r1, r9
 80025d0:	fb0c fc05 	mul.w	ip, ip, r5
 80025d4:	ea4f 4501 	mov.w	r5, r1, lsl #16
 80025d8:	9919      	ldr	r1, [sp, #100]	; 0x64
 80025da:	f16b 0b00 	sbc.w	fp, fp, #0
 80025de:	fb01 b607 	mla	r6, r1, r7, fp
 80025e2:	4641      	mov	r1, r8
 80025e4:	040c      	lsls	r4, r1, #16
 80025e6:	eb14 040c 	adds.w	r4, r4, ip
 80025ea:	ea45 4518 	orr.w	r5, r5, r8, lsr #16
 80025ee:	f145 0500 	adc.w	r5, r5, #0
 80025f2:	e9cd a62e 	strd	sl, r6, [sp, #184]	; 0xb8
 80025f6:	46ac      	mov	ip, r5
 80025f8:	9e0a      	ldr	r6, [sp, #40]	; 0x28
 80025fa:	9d0d      	ldr	r5, [sp, #52]	; 0x34
 80025fc:	f8bd 2000 	ldrh.w	r2, [sp]
 8002600:	990c      	ldr	r1, [sp, #48]	; 0x30
 8002602:	9f02      	ldr	r7, [sp, #8]
 8002604:	eba6 0a05 	sub.w	sl, r6, r5
 8002608:	9d04      	ldr	r5, [sp, #16]
 800260a:	4616      	mov	r6, r2
 800260c:	9a08      	ldr	r2, [sp, #32]
 800260e:	960c      	str	r6, [sp, #48]	; 0x30
 8002610:	eb1e 0404 	adds.w	r4, lr, r4
 8002614:	fb01 c202 	mla	r2, r1, r2, ip
 8002618:	940d      	str	r4, [sp, #52]	; 0x34
 800261a:	e9dd bc2e 	ldrd	fp, ip, [sp, #184]	; 0xb8
 800261e:	ea4f 4415 	mov.w	r4, r5, lsr #16
 8002622:	9d0b      	ldr	r5, [sp, #44]	; 0x2c
 8002624:	f8bd e010 	ldrh.w	lr, [sp, #16]
 8002628:	9408      	str	r4, [sp, #32]
 800262a:	eba5 0507 	sub.w	r5, r5, r7
 800262e:	f04f 0300 	mov.w	r3, #0
 8002632:	eb43 0703 	adc.w	r7, r3, r3
 8002636:	eb1b 0b02 	adds.w	fp, fp, r2
 800263a:	462b      	mov	r3, r5
 800263c:	9a00      	ldr	r2, [sp, #0]
 800263e:	930a      	str	r3, [sp, #40]	; 0x28
 8002640:	ea4f 4815 	mov.w	r8, r5, lsr #16
 8002644:	f14c 0c00 	adc.w	ip, ip, #0
 8002648:	0c11      	lsrs	r1, r2, #16
 800264a:	eb1b 0907 	adds.w	r9, fp, r7
 800264e:	f8bd 2028 	ldrh.w	r2, [sp, #40]	; 0x28
 8002652:	f8cd 9060 	str.w	r9, [sp, #96]	; 0x60
 8002656:	fb04 f406 	mul.w	r4, r4, r6
 800265a:	f04f 0500 	mov.w	r5, #0
 800265e:	fbee 4501 	umlal	r4, r5, lr, r1
 8002662:	e9cd bc06 	strd	fp, ip, [sp, #24]
 8002666:	ea4f 491a 	mov.w	r9, sl, lsr #16
 800266a:	fa1f f68a 	uxth.w	r6, sl
 800266e:	fb06 f708 	mul.w	r7, r6, r8
 8002672:	fb08 fb09 	mul.w	fp, r8, r9
 8002676:	9b07      	ldr	r3, [sp, #28]
 8002678:	fb06 f602 	mul.w	r6, r6, r2
 800267c:	fb02 f209 	mul.w	r2, r2, r9
 8002680:	ea4f 4905 	mov.w	r9, r5, lsl #16
 8002684:	f04f 0c00 	mov.w	ip, #0
 8002688:	ea4f 4502 	mov.w	r5, r2, lsl #16
 800268c:	ea49 4914 	orr.w	r9, r9, r4, lsr #16
 8002690:	ea4f 4804 	mov.w	r8, r4, lsl #16
 8002694:	ea4f 4407 	mov.w	r4, r7, lsl #16
 8002698:	eb43 030c 	adc.w	r3, r3, ip
 800269c:	0c12      	lsrs	r2, r2, #16
 800269e:	1964      	adds	r4, r4, r5
 80026a0:	ea4f 4717 	mov.w	r7, r7, lsr #16
 80026a4:	9306      	str	r3, [sp, #24]
 80026a6:	eb42 0707 	adc.w	r7, r2, r7
 80026aa:	9b0c      	ldr	r3, [sp, #48]	; 0x30
 80026ac:	19a6      	adds	r6, r4, r6
 80026ae:	eb47 070b 	adc.w	r7, r7, fp
 80026b2:	fbe3 890e 	umlal	r8, r9, r3, lr
 80026b6:	19bd      	adds	r5, r7, r6
 80026b8:	4663      	mov	r3, ip
 80026ba:	eb4c 040c 	adc.w	r4, ip, ip
 80026be:	eb15 0c08 	adds.w	ip, r5, r8
 80026c2:	9d08      	ldr	r5, [sp, #32]
 80026c4:	f8cd c030 	str.w	ip, [sp, #48]	; 0x30
 80026c8:	eb43 0404 	adc.w	r4, r3, r4
 80026cc:	eb17 0708 	adds.w	r7, r7, r8
 80026d0:	fb05 9101 	mla	r1, r5, r1, r9
 80026d4:	eb43 0203 	adc.w	r2, r3, r3
 80026d8:	eb17 0904 	adds.w	r9, r7, r4
 80026dc:	9d0b      	ldr	r5, [sp, #44]	; 0x2c
 80026de:	f8cd 9050 	str.w	r9, [sp, #80]	; 0x50
 80026e2:	eb42 0903 	adc.w	r9, r2, r3
 80026e6:	9a02      	ldr	r2, [sp, #8]
 80026e8:	f8cd 9054 	str.w	r9, [sp, #84]	; 0x54
 80026ec:	469c      	mov	ip, r3
 80026ee:	eba2 0e05 	sub.w	lr, r2, r5
 80026f2:	e9dd 2314 	ldrd	r2, r3, [sp, #80]	; 0x50
 80026f6:	1852      	adds	r2, r2, r1
 80026f8:	e9dd 8900 	ldrd	r8, r9, [sp]
 80026fc:	9c04      	ldr	r4, [sp, #16]
 80026fe:	f143 0300 	adc.w	r3, r3, #0
 8002702:	4419      	add	r1, r3
 8002704:	e9cd 2136 	strd	r2, r1, [sp, #216]	; 0xd8
 8002708:	44a6      	add	lr, r4
 800270a:	9c04      	ldr	r4, [sp, #16]
 800270c:	9d0a      	ldr	r5, [sp, #40]	; 0x28
 800270e:	4643      	mov	r3, r8
 8002710:	ebba 0303 	subs.w	r3, sl, r3
 8002714:	46b3      	mov	fp, r6
 8002716:	4663      	mov	r3, ip
 8002718:	ebaa 0608 	sub.w	r6, sl, r8
 800271c:	46a0      	mov	r8, r4
 800271e:	eb63 0703 	sbc.w	r7, r3, r3
 8002722:	ebb8 0805 	subs.w	r8, r8, r5
 8002726:	f163 0900 	sbc.w	r9, r3, #0
 800272a:	464d      	mov	r5, r9
 800272c:	e9dd 8936 	ldrd	r8, r9, [sp, #216]	; 0xd8
 8002730:	ea4f 421e 	mov.w	r2, lr, lsr #16
 8002734:	9202      	str	r2, [sp, #8]
 8002736:	ea4f 4c16 	mov.w	ip, r6, lsr #16
 800273a:	b2b2      	uxth	r2, r6
 800273c:	402e      	ands	r6, r5
 800273e:	fa1f f18e 	uxth.w	r1, lr
 8002742:	ebb8 0806 	subs.w	r8, r8, r6
 8002746:	ea0e 0e07 	and.w	lr, lr, r7
 800274a:	f169 0900 	sbc.w	r9, r9, #0
 800274e:	ebb8 080e 	subs.w	r8, r8, lr
 8002752:	f169 0900 	sbc.w	r9, r9, #0
 8002756:	fb05 9e07 	mla	lr, r5, r7, r9
 800275a:	9d02      	ldr	r5, [sp, #8]
 800275c:	fb0c f601 	mul.w	r6, ip, r1
 8002760:	fb05 f502 	mul.w	r5, r5, r2
 8002764:	1976      	adds	r6, r6, r5
 8002766:	e9cd 8e36 	strd	r8, lr, [sp, #216]	; 0xd8
 800276a:	f04f 0700 	mov.w	r7, #0
 800276e:	f147 0700 	adc.w	r7, r7, #0
 8002772:	fb01 f102 	mul.w	r1, r1, r2
 8002776:	043d      	lsls	r5, r7, #16
 8002778:	0434      	lsls	r4, r6, #16
 800277a:	9a02      	ldr	r2, [sp, #8]
 800277c:	f8dd e034 	ldr.w	lr, [sp, #52]	; 0x34
 8002780:	1864      	adds	r4, r4, r1
 8002782:	ea45 4516 	orr.w	r5, r5, r6, lsr #16
 8002786:	990c      	ldr	r1, [sp, #48]	; 0x30
 8002788:	e9dd 6736 	ldrd	r6, r7, [sp, #216]	; 0xd8
 800278c:	f145 0500 	adc.w	r5, r5, #0
 8002790:	fb0c 5202 	mla	r2, ip, r2, r5
 8002794:	1909      	adds	r1, r1, r4
 8002796:	eb43 0503 	adc.w	r5, r3, r3
 800279a:	18b6      	adds	r6, r6, r2
 800279c:	9c1f      	ldr	r4, [sp, #124]	; 0x7c
 800279e:	f8dd c078 	ldr.w	ip, [sp, #120]	; 0x78
 80027a2:	f147 0700 	adc.w	r7, r7, #0
 80027a6:	1975      	adds	r5, r6, r5
 80027a8:	9e1b      	ldr	r6, [sp, #108]	; 0x6c
 80027aa:	eb47 0203 	adc.w	r2, r7, r3
 80027ae:	9f1a      	ldr	r7, [sp, #104]	; 0x68
 80027b0:	9208      	str	r2, [sp, #32]
 80027b2:	19a6      	adds	r6, r4, r6
 80027b4:	eb43 0203 	adc.w	r2, r3, r3
 80027b8:	19be      	adds	r6, r7, r6
 80027ba:	eb43 0202 	adc.w	r2, r3, r2
 80027be:	eb1b 0606 	adds.w	r6, fp, r6
 80027c2:	eb43 0202 	adc.w	r2, r3, r2
 80027c6:	eb1c 0902 	adds.w	r9, ip, r2
 80027ca:	ea4f 72e2 	mov.w	r2, r2, asr #31
 80027ce:	eb43 0202 	adc.w	r2, r3, r2
 80027d2:	920f      	str	r2, [sp, #60]	; 0x3c
 80027d4:	f8cd 9038 	str.w	r9, [sp, #56]	; 0x38
 80027d8:	e9dd 890e 	ldrd	r8, r9, [sp, #56]	; 0x38
 80027dc:	9a16      	ldr	r2, [sp, #88]	; 0x58
 80027de:	eb18 0802 	adds.w	r8, r8, r2
 80027e2:	f149 0900 	adc.w	r9, r9, #0
 80027e6:	eb1e 0208 	adds.w	r2, lr, r8
 80027ea:	eb43 0709 	adc.w	r7, r3, r9
 80027ee:	188a      	adds	r2, r1, r2
 80027f0:	991a      	ldr	r1, [sp, #104]	; 0x68
 80027f2:	eb43 0707 	adc.w	r7, r3, r7
 80027f6:	19c9      	adds	r1, r1, r7
 80027f8:	ea4f 78e7 	mov.w	r8, r7, asr #31
 80027fc:	9f18      	ldr	r7, [sp, #96]	; 0x60
 80027fe:	eb43 0808 	adc.w	r8, r3, r8
 8002802:	1861      	adds	r1, r4, r1
 8002804:	eb43 0808 	adc.w	r8, r3, r8
 8002808:	1879      	adds	r1, r7, r1
 800280a:	eb43 0808 	adc.w	r8, r3, r8
 800280e:	186c      	adds	r4, r5, r1
 8002810:	9410      	str	r4, [sp, #64]	; 0x40
 8002812:	9c05      	ldr	r4, [sp, #20]
 8002814:	ea0a 0a04 	and.w	sl, sl, r4
 8002818:	eb43 0408 	adc.w	r4, r3, r8
 800281c:	e9dd 8900 	ldrd	r8, r9, [sp]
 8002820:	9411      	str	r4, [sp, #68]	; 0x44
 8002822:	9c0a      	ldr	r4, [sp, #40]	; 0x28
 8002824:	ea04 0109 	and.w	r1, r4, r9
 8002828:	e9dd 4510 	ldrd	r4, r5, [sp, #64]	; 0x40
 800282c:	ebb4 040a 	subs.w	r4, r4, sl
 8002830:	f165 0500 	sbc.w	r5, r5, #0
 8002834:	ebb4 0a01 	subs.w	sl, r4, r1
 8002838:	f165 0b00 	sbc.w	fp, r5, #0
 800283c:	4659      	mov	r1, fp
 800283e:	eb1e 040b 	adds.w	r4, lr, fp
 8002842:	ea4f 71e1 	mov.w	r1, r1, asr #31
 8002846:	9412      	str	r4, [sp, #72]	; 0x48
 8002848:	eb43 0401 	adc.w	r4, r3, r1
 800284c:	9413      	str	r4, [sp, #76]	; 0x4c
 800284e:	e9cd ab02 	strd	sl, fp, [sp, #8]
 8002852:	e9dd ab12 	ldrd	sl, fp, [sp, #72]	; 0x48
 8002856:	9d16      	ldr	r5, [sp, #88]	; 0x58
 8002858:	9908      	ldr	r1, [sp, #32]
 800285a:	60c2      	str	r2, [r0, #12]
 800285c:	eb1a 0a05 	adds.w	sl, sl, r5
 8002860:	9d06      	ldr	r5, [sp, #24]
 8002862:	9a02      	ldr	r2, [sp, #8]
 8002864:	f14b 0b00 	adc.w	fp, fp, #0
 8002868:	eb1a 0a05 	adds.w	sl, sl, r5
 800286c:	f14b 0b00 	adc.w	fp, fp, #0
 8002870:	eb1a 0401 	adds.w	r4, sl, r1
 8002874:	f14b 0500 	adc.w	r5, fp, #0
 8002878:	9905      	ldr	r1, [sp, #20]
 800287a:	e9dd ab04 	ldrd	sl, fp, [sp, #16]
 800287e:	ea01 0108 	and.w	r1, r1, r8
 8002882:	1a64      	subs	r4, r4, r1
 8002884:	ea09 010a 	and.w	r1, r9, sl
 8002888:	f165 0500 	sbc.w	r5, r5, #0
 800288c:	1a64      	subs	r4, r4, r1
 800288e:	9901      	ldr	r1, [sp, #4]
 8002890:	f165 0500 	sbc.w	r5, r5, #0
 8002894:	fb0b f101 	mul.w	r1, fp, r1
 8002898:	eb15 0801 	adds.w	r8, r5, r1
 800289c:	ea4f 79e5 	mov.w	r9, r5, asr #31
 80028a0:	eb49 79e1 	adc.w	r9, r9, r1, asr #31
 80028a4:	9906      	ldr	r1, [sp, #24]
 80028a6:	eb17 0708 	adds.w	r7, r7, r8
 80028aa:	eb43 0309 	adc.w	r3, r3, r9
 80028ae:	440b      	add	r3, r1
 80028b0:	991b      	ldr	r1, [sp, #108]	; 0x6c
 80028b2:	6001      	str	r1, [r0, #0]
 80028b4:	46de      	mov	lr, fp
 80028b6:	e9c0 c601 	strd	ip, r6, [r0, #4]
 80028ba:	e9c0 2404 	strd	r2, r4, [r0, #16]
 80028be:	e9c0 7306 	strd	r7, r3, [r0, #24]
 80028c2:	b039      	add	sp, #228	; 0xe4
 80028c4:	e8bd 8ff0 	ldmia.w	sp!, {r4, r5, r6, r7, r8, r9, sl, fp, pc}

080028c8 <multiply288x288>:
 80028c8:	e92d 4ff0 	stmdb	sp!, {r4, r5, r6, r7, r8, r9, sl, fp, lr}
 80028cc:	460e      	mov	r6, r1
 80028ce:	b08f      	sub	sp, #60	; 0x3c
 80028d0:	4614      	mov	r4, r2
 80028d2:	4605      	mov	r5, r0
 80028d4:	920a      	str	r2, [sp, #40]	; 0x28
 80028d6:	9009      	str	r0, [sp, #36]	; 0x24
 80028d8:	f7fe f83c 	bl	8000954 <multiply256x256_asm>
 80028dc:	6a32      	ldr	r2, [r6, #32]
 80028de:	6a23      	ldr	r3, [r4, #32]
 80028e0:	b291      	uxth	r1, r2
 80028e2:	0c14      	lsrs	r4, r2, #16
 80028e4:	ea4f 4913 	mov.w	r9, r3, lsr #16
 80028e8:	fa1f f883 	uxth.w	r8, r3
 80028ec:	fb09 fb01 	mul.w	fp, r9, r1
 80028f0:	fb04 f308 	mul.w	r3, r4, r8
 80028f4:	041a      	lsls	r2, r3, #16
 80028f6:	ea4f 4a0b 	mov.w	sl, fp, lsl #16
 80028fa:	eb1a 0a02 	adds.w	sl, sl, r2
 80028fe:	ea4f 4313 	mov.w	r3, r3, lsr #16
 8002902:	ea4f 4b1b 	mov.w	fp, fp, lsr #16
 8002906:	fb08 f201 	mul.w	r2, r8, r1
 800290a:	eb4b 0b03 	adc.w	fp, fp, r3
 800290e:	9106      	str	r1, [sp, #24]
 8002910:	fb09 f304 	mul.w	r3, r9, r4
 8002914:	eb1a 0102 	adds.w	r1, sl, r2
 8002918:	f105 0720 	add.w	r7, r5, #32
 800291c:	f04f 0e00 	mov.w	lr, #0
 8002920:	9407      	str	r4, [sp, #28]
 8002922:	f1a6 0604 	sub.w	r6, r6, #4
 8002926:	f105 0440 	add.w	r4, r5, #64	; 0x40
 800292a:	eb4b 0303 	adc.w	r3, fp, r3
 800292e:	910b      	str	r1, [sp, #44]	; 0x2c
 8002930:	930c      	str	r3, [sp, #48]	; 0x30
 8002932:	46bc      	mov	ip, r7
 8002934:	9408      	str	r4, [sp, #32]
 8002936:	4675      	mov	r5, lr
 8002938:	4671      	mov	r1, lr
 800293a:	9605      	str	r6, [sp, #20]
 800293c:	970d      	str	r7, [sp, #52]	; 0x34
 800293e:	9a05      	ldr	r2, [sp, #20]
 8002940:	f8cd e004 	str.w	lr, [sp, #4]
 8002944:	f852 3f04 	ldr.w	r3, [r2, #4]!
 8002948:	9205      	str	r2, [sp, #20]
 800294a:	b29f      	uxth	r7, r3
 800294c:	0c1b      	lsrs	r3, r3, #16
 800294e:	fb07 f009 	mul.w	r0, r7, r9
 8002952:	fb03 fa08 	mul.w	sl, r3, r8
 8002956:	0402      	lsls	r2, r0, #16
 8002958:	ea4f 4b0a 	mov.w	fp, sl, lsl #16
 800295c:	fb07 f708 	mul.w	r7, r7, r8
 8002960:	eb12 020b 	adds.w	r2, r2, fp
 8002964:	ea4f 4010 	mov.w	r0, r0, lsr #16
 8002968:	ea4f 4a1a 	mov.w	sl, sl, lsr #16
 800296c:	eb40 0a0a 	adc.w	sl, r0, sl
 8002970:	19d2      	adds	r2, r2, r7
 8002972:	9200      	str	r2, [sp, #0]
 8002974:	e9dd 6700 	ldrd	r6, r7, [sp]
 8002978:	fb03 f309 	mul.w	r3, r3, r9
 800297c:	eb4a 0a03 	adc.w	sl, sl, r3
 8002980:	f8dc 3000 	ldr.w	r3, [ip]
 8002984:	18f6      	adds	r6, r6, r3
 8002986:	f147 0700 	adc.w	r7, r7, #0
 800298a:	1975      	adds	r5, r6, r5
 800298c:	f84c 5b04 	str.w	r5, [ip], #4
 8002990:	eb47 0101 	adc.w	r1, r7, r1
 8002994:	eb1a 0501 	adds.w	r5, sl, r1
 8002998:	4671      	mov	r1, lr
 800299a:	4149      	adcs	r1, r1
 800299c:	4564      	cmp	r4, ip
 800299e:	d1ce      	bne.n	800293e <multiply288x288+0x76>
 80029a0:	f8dd a02c 	ldr.w	sl, [sp, #44]	; 0x2c
 80029a4:	9b0c      	ldr	r3, [sp, #48]	; 0x30
 80029a6:	9f0d      	ldr	r7, [sp, #52]	; 0x34
 80029a8:	eb1a 0a05 	adds.w	sl, sl, r5
 80029ac:	eb4e 0101 	adc.w	r1, lr, r1
 80029b0:	440b      	add	r3, r1
 80029b2:	469b      	mov	fp, r3
 80029b4:	e9dd 8906 	ldrd	r8, r9, [sp, #24]
 80029b8:	9b0a      	ldr	r3, [sp, #40]	; 0x28
 80029ba:	9d08      	ldr	r5, [sp, #32]
 80029bc:	f8cd b000 	str.w	fp, [sp]
 80029c0:	2600      	movs	r6, #0
 80029c2:	f1a3 0e04 	sub.w	lr, r3, #4
 80029c6:	4630      	mov	r0, r6
 80029c8:	46b4      	mov	ip, r6
 80029ca:	f8cd a014 	str.w	sl, [sp, #20]
 80029ce:	f85e 3f04 	ldr.w	r3, [lr, #4]!
 80029d2:	f8cd c00c 	str.w	ip, [sp, #12]
 80029d6:	b29c      	uxth	r4, r3
 80029d8:	0c1b      	lsrs	r3, r3, #16
 80029da:	fb04 fa09 	mul.w	sl, r4, r9
 80029de:	fb03 f108 	mul.w	r1, r3, r8
 80029e2:	ea4f 420a 	mov.w	r2, sl, lsl #16
 80029e6:	ea4f 4b01 	mov.w	fp, r1, lsl #16
 80029ea:	eb12 020b 	adds.w	r2, r2, fp
 80029ee:	ea4f 4111 	mov.w	r1, r1, lsr #16
 80029f2:	fb04 f408 	mul.w	r4, r4, r8
 80029f6:	ea4f 4a1a 	mov.w	sl, sl, lsr #16
 80029fa:	eb4a 0a01 	adc.w	sl, sl, r1
 80029fe:	1912      	adds	r2, r2, r4
 8002a00:	9202      	str	r2, [sp, #8]
 8002a02:	e9dd 1202 	ldrd	r1, r2, [sp, #8]
 8002a06:	fb03 f309 	mul.w	r3, r3, r9
 8002a0a:	eb4a 0a03 	adc.w	sl, sl, r3
 8002a0e:	683b      	ldr	r3, [r7, #0]
 8002a10:	18c9      	adds	r1, r1, r3
 8002a12:	f142 0200 	adc.w	r2, r2, #0
 8002a16:	198e      	adds	r6, r1, r6
 8002a18:	f847 6b04 	str.w	r6, [r7], #4
 8002a1c:	eb42 0000 	adc.w	r0, r2, r0
 8002a20:	eb1a 0600 	adds.w	r6, sl, r0
 8002a24:	4660      	mov	r0, ip
 8002a26:	4140      	adcs	r0, r0
 8002a28:	42bd      	cmp	r5, r7
 8002a2a:	d1d0      	bne.n	80029ce <multiply288x288+0x106>
 8002a2c:	f8dd a014 	ldr.w	sl, [sp, #20]
 8002a30:	f8dd b000 	ldr.w	fp, [sp]
 8002a34:	9b09      	ldr	r3, [sp, #36]	; 0x24
 8002a36:	eb16 060a 	adds.w	r6, r6, sl
 8002a3a:	eb40 0c0c 	adc.w	ip, r0, ip
 8002a3e:	eb0b 000c 	add.w	r0, fp, ip
 8002a42:	6458      	str	r0, [r3, #68]	; 0x44
 8002a44:	641e      	str	r6, [r3, #64]	; 0x40
 8002a46:	b00f      	add	sp, #60	; 0x3c
 8002a48:	e8bd 8ff0 	ldmia.w	sp!, {r4, r5, r6, r7, r8, r9, sl, fp, pc}

08002a4c <multiply136x136>:
 8002a4c:	e92d 4ff0 	stmdb	sp!, {r4, r5, r6, r7, r8, r9, sl, fp, lr}
 8002a50:	460e      	mov	r6, r1
 8002a52:	4617      	mov	r7, r2
 8002a54:	b083      	sub	sp, #12
 8002a56:	4604      	mov	r4, r0
 8002a58:	9001      	str	r0, [sp, #4]
 8002a5a:	f7ff fc19 	bl	8002290 <multiply128x128_c>
 8002a5e:	1cb3      	adds	r3, r6, #2
 8002a60:	f896 e010 	ldrb.w	lr, [r6, #16]
 8002a64:	f897 c010 	ldrb.w	ip, [r7, #16]
 8002a68:	9300      	str	r3, [sp, #0]
 8002a6a:	2000      	movs	r0, #0
 8002a6c:	f104 0210 	add.w	r2, r4, #16
 8002a70:	f107 0902 	add.w	r9, r7, #2
 8002a74:	f04f 0a00 	mov.w	sl, #0
 8002a78:	f04f 0b00 	mov.w	fp, #0
 8002a7c:	46b0      	mov	r8, r6
 8002a7e:	f838 4020 	ldrh.w	r4, [r8, r0, lsl #2]
 8002a82:	f837 6020 	ldrh.w	r6, [r7, r0, lsl #2]
 8002a86:	f839 1020 	ldrh.w	r1, [r9, r0, lsl #2]
 8002a8a:	6813      	ldr	r3, [r2, #0]
 8002a8c:	fb0c f404 	mul.w	r4, ip, r4
 8002a90:	2500      	movs	r5, #0
 8002a92:	fbee 4506 	umlal	r4, r5, lr, r6
 8002a96:	9e00      	ldr	r6, [sp, #0]
 8002a98:	f836 6020 	ldrh.w	r6, [r6, r0, lsl #2]
 8002a9c:	fb0e f101 	mul.w	r1, lr, r1
 8002aa0:	18e4      	adds	r4, r4, r3
 8002aa2:	fb0c f606 	mul.w	r6, ip, r6
 8002aa6:	ea4f 4301 	mov.w	r3, r1, lsl #16
 8002aaa:	f145 0500 	adc.w	r5, r5, #0
 8002aae:	0c09      	lsrs	r1, r1, #16
 8002ab0:	18e3      	adds	r3, r4, r3
 8002ab2:	ea4f 4406 	mov.w	r4, r6, lsl #16
 8002ab6:	eb45 0101 	adc.w	r1, r5, r1
 8002aba:	0c36      	lsrs	r6, r6, #16
 8002abc:	191b      	adds	r3, r3, r4
 8002abe:	eb41 0606 	adc.w	r6, r1, r6
 8002ac2:	3001      	adds	r0, #1
 8002ac4:	eb13 030a 	adds.w	r3, r3, sl
 8002ac8:	eb46 060b 	adc.w	r6, r6, fp
 8002acc:	2804      	cmp	r0, #4
 8002ace:	f842 3b04 	str.w	r3, [r2], #4
 8002ad2:	46b2      	mov	sl, r6
 8002ad4:	f04f 0b00 	mov.w	fp, #0
 8002ad8:	d1d1      	bne.n	8002a7e <multiply136x136+0x32>
 8002ada:	9b01      	ldr	r3, [sp, #4]
 8002adc:	fbec ab0e 	umlal	sl, fp, ip, lr
 8002ae0:	f8a3 a020 	strh.w	sl, [r3, #32]
 8002ae4:	b003      	add	sp, #12
 8002ae6:	e8bd 8ff0 	ldmia.w	sp!, {r4, r5, r6, r7, r8, r9, sl, fp, pc}
 8002aea:	bf00      	nop

08002aec <setone_256bitvalue>:
 8002aec:	2300      	movs	r3, #0
 8002aee:	2201      	movs	r2, #1
 8002af0:	e9c0 2300 	strd	r2, r3, [r0]
 8002af4:	e9c0 3302 	strd	r3, r3, [r0, #8]
 8002af8:	e9c0 3304 	strd	r3, r3, [r0, #16]
 8002afc:	e9c0 3306 	strd	r3, r3, [r0, #24]
 8002b00:	4770      	bx	lr
 8002b02:	bf00      	nop

08002b04 <setzero_256bitvalue>:
 8002b04:	2300      	movs	r3, #0
 8002b06:	e9c0 3300 	strd	r3, r3, [r0]
 8002b0a:	e9c0 3302 	strd	r3, r3, [r0, #8]
 8002b0e:	e9c0 3304 	strd	r3, r3, [r0, #16]
 8002b12:	e9c0 3306 	strd	r3, r3, [r0, #24]
 8002b16:	4770      	bx	lr

08002b18 <cpy_256bitvalue>:
 8002b18:	1f0b      	subs	r3, r1, #4
 8002b1a:	3804      	subs	r0, #4
 8002b1c:	311c      	adds	r1, #28
 8002b1e:	f853 2f04 	ldr.w	r2, [r3, #4]!
 8002b22:	f840 2f04 	str.w	r2, [r0, #4]!
 8002b26:	428b      	cmp	r3, r1
 8002b28:	d1f9      	bne.n	8002b1e <cpy_256bitvalue+0x6>
 8002b2a:	4770      	bx	lr

08002b2c <cpy_192bitvalue>:
 8002b2c:	1f0b      	subs	r3, r1, #4
 8002b2e:	3804      	subs	r0, #4
 8002b30:	3114      	adds	r1, #20
 8002b32:	f853 2f04 	ldr.w	r2, [r3, #4]!
 8002b36:	f840 2f04 	str.w	r2, [r0, #4]!
 8002b3a:	428b      	cmp	r3, r1
 8002b3c:	d1f9      	bne.n	8002b32 <cpy_192bitvalue+0x6>
 8002b3e:	4770      	bx	lr

08002b40 <conditionalMove_192bitValue>:
 8002b40:	b430      	push	{r4, r5}
 8002b42:	3904      	subs	r1, #4
 8002b44:	4252      	negs	r2, r2
 8002b46:	1f04      	subs	r4, r0, #4
 8002b48:	f100 0514 	add.w	r5, r0, #20
 8002b4c:	f854 0f04 	ldr.w	r0, [r4, #4]!
 8002b50:	f851 3f04 	ldr.w	r3, [r1, #4]!
 8002b54:	4043      	eors	r3, r0
 8002b56:	4013      	ands	r3, r2
 8002b58:	4043      	eors	r3, r0
 8002b5a:	42ac      	cmp	r4, r5
 8002b5c:	6023      	str	r3, [r4, #0]
 8002b5e:	d1f5      	bne.n	8002b4c <conditionalMove_192bitValue+0xc>
 8002b60:	bc30      	pop	{r4, r5}
 8002b62:	4770      	bx	lr

08002b64 <conditionalMove_256bitValue>:
 8002b64:	b430      	push	{r4, r5}
 8002b66:	3904      	subs	r1, #4
 8002b68:	4252      	negs	r2, r2
 8002b6a:	1f04      	subs	r4, r0, #4
 8002b6c:	f100 051c 	add.w	r5, r0, #28
 8002b70:	f854 0f04 	ldr.w	r0, [r4, #4]!
 8002b74:	f851 3f04 	ldr.w	r3, [r1, #4]!
 8002b78:	4043      	eors	r3, r0
 8002b7a:	4013      	ands	r3, r2
 8002b7c:	4043      	eors	r3, r0
 8002b7e:	42ac      	cmp	r4, r5
 8002b80:	6023      	str	r3, [r4, #0]
 8002b82:	d1f5      	bne.n	8002b70 <conditionalMove_256bitValue+0xc>
 8002b84:	bc30      	pop	{r4, r5}
 8002b86:	4770      	bx	lr

08002b88 <shiftLeftOne>:
 8002b88:	69c3      	ldr	r3, [r0, #28]
 8002b8a:	4602      	mov	r2, r0
 8002b8c:	005b      	lsls	r3, r3, #1
 8002b8e:	f842 3f1c 	str.w	r3, [r2, #28]!
 8002b92:	f852 1c04 	ldr.w	r1, [r2, #-4]
 8002b96:	eb03 73d1 	add.w	r3, r3, r1, lsr #31
 8002b9a:	6013      	str	r3, [r2, #0]
 8002b9c:	f852 3d04 	ldr.w	r3, [r2, #-4]!
 8002ba0:	005b      	lsls	r3, r3, #1
 8002ba2:	4282      	cmp	r2, r0
 8002ba4:	6013      	str	r3, [r2, #0]
 8002ba6:	d1f4      	bne.n	8002b92 <shiftLeftOne+0xa>
 8002ba8:	4770      	bx	lr
 8002baa:	bf00      	nop

08002bac <shiftRightOne>:
 8002bac:	6803      	ldr	r3, [r0, #0]
 8002bae:	69c1      	ldr	r1, [r0, #28]
 8002bb0:	085b      	lsrs	r3, r3, #1
 8002bb2:	b430      	push	{r4, r5}
 8002bb4:	4602      	mov	r2, r0
 8002bb6:	6003      	str	r3, [r0, #0]
 8002bb8:	f001 4500 	and.w	r5, r1, #2147483648	; 0x80000000
 8002bbc:	f100 041c 	add.w	r4, r0, #28
 8002bc0:	6851      	ldr	r1, [r2, #4]
 8002bc2:	eb03 73c1 	add.w	r3, r3, r1, lsl #31
 8002bc6:	6013      	str	r3, [r2, #0]
 8002bc8:	f852 3f04 	ldr.w	r3, [r2, #4]!
 8002bcc:	085b      	lsrs	r3, r3, #1
 8002bce:	42a2      	cmp	r2, r4
 8002bd0:	6013      	str	r3, [r2, #0]
 8002bd2:	d1f5      	bne.n	8002bc0 <shiftRightOne+0x14>
 8002bd4:	69c3      	ldr	r3, [r0, #28]
 8002bd6:	432b      	orrs	r3, r5
 8002bd8:	61c3      	str	r3, [r0, #28]
 8002bda:	bc30      	pop	{r4, r5}
 8002bdc:	4770      	bx	lr
 8002bde:	bf00      	nop

08002be0 <isEqual_256bitvalue>:
 8002be0:	b430      	push	{r4, r5}
 8002be2:	1f02      	subs	r2, r0, #4
 8002be4:	f100 051c 	add.w	r5, r0, #28
 8002be8:	3904      	subs	r1, #4
 8002bea:	2000      	movs	r0, #0
 8002bec:	f852 3f04 	ldr.w	r3, [r2, #4]!
 8002bf0:	f851 4f04 	ldr.w	r4, [r1, #4]!
 8002bf4:	42aa      	cmp	r2, r5
 8002bf6:	ea83 0304 	eor.w	r3, r3, r4
 8002bfa:	ea40 0003 	orr.w	r0, r0, r3
 8002bfe:	d1f5      	bne.n	8002bec <isEqual_256bitvalue+0xc>
 8002c00:	bc30      	pop	{r4, r5}
 8002c02:	4770      	bx	lr

08002c04 <dma_stream_reset>:
 8002c04:	2318      	movs	r3, #24
 8002c06:	fb13 0301 	smlabb	r3, r3, r1, r0
 8002c0a:	b510      	push	{r4, lr}
 8002c0c:	691a      	ldr	r2, [r3, #16]
 8002c0e:	f022 0201 	bic.w	r2, r2, #1
 8002c12:	611a      	str	r2, [r3, #16]
 8002c14:	2200      	movs	r2, #0
 8002c16:	611a      	str	r2, [r3, #16]
 8002c18:	e9c3 2206 	strd	r2, r2, [r3, #24]
 8002c1c:	615a      	str	r2, [r3, #20]
 8002c1e:	621a      	str	r2, [r3, #32]
 8002c20:	2221      	movs	r2, #33	; 0x21
 8002c22:	625a      	str	r2, [r3, #36]	; 0x24
 8002c24:	f3c1 0240 	ubfx	r2, r1, #1, #1
 8002c28:	2306      	movs	r3, #6
 8002c2a:	f001 0401 	and.w	r4, r1, #1
 8002c2e:	0112      	lsls	r2, r2, #4
 8002c30:	fb13 2204 	smlabb	r2, r3, r4, r2
 8002c34:	2903      	cmp	r1, #3
 8002c36:	f04f 033d 	mov.w	r3, #61	; 0x3d
 8002c3a:	fa03 f302 	lsl.w	r3, r3, r2
 8002c3e:	bf95      	itete	ls
 8002c40:	6882      	ldrls	r2, [r0, #8]
 8002c42:	68c2      	ldrhi	r2, [r0, #12]
 8002c44:	4313      	orrls	r3, r2
 8002c46:	4313      	orrhi	r3, r2
 8002c48:	bf94      	ite	ls
 8002c4a:	6083      	strls	r3, [r0, #8]
 8002c4c:	60c3      	strhi	r3, [r0, #12]
 8002c4e:	bd10      	pop	{r4, pc}

08002c50 <dma_clear_interrupt_flags>:
 8002c50:	b530      	push	{r4, r5, lr}
 8002c52:	f3c1 0340 	ubfx	r3, r1, #1, #1
 8002c56:	011c      	lsls	r4, r3, #4
 8002c58:	f001 0501 	and.w	r5, r1, #1
 8002c5c:	2306      	movs	r3, #6
 8002c5e:	fb13 4305 	smlabb	r3, r3, r5, r4
 8002c62:	409a      	lsls	r2, r3
 8002c64:	2903      	cmp	r1, #3
 8002c66:	bf94      	ite	ls
 8002c68:	6082      	strls	r2, [r0, #8]
 8002c6a:	60c2      	strhi	r2, [r0, #12]
 8002c6c:	bd30      	pop	{r4, r5, pc}

08002c6e <dma_set_transfer_mode>:
 8002c6e:	2318      	movs	r3, #24
 8002c70:	3010      	adds	r0, #16
 8002c72:	fb03 0101 	mla	r1, r3, r1, r0
 8002c76:	2a80      	cmp	r2, #128	; 0x80
 8002c78:	680b      	ldr	r3, [r1, #0]
 8002c7a:	bf0a      	itet	eq
 8002c7c:	f423 2380 	biceq.w	r3, r3, #262144	; 0x40000
 8002c80:	f023 03c0 	bicne.w	r3, r3, #192	; 0xc0
 8002c84:	f423 73e0 	biceq.w	r3, r3, #448	; 0x1c0
 8002c88:	431a      	orrs	r2, r3
 8002c8a:	600a      	str	r2, [r1, #0]
 8002c8c:	4770      	bx	lr

08002c8e <dma_set_priority>:
 8002c8e:	3010      	adds	r0, #16
 8002c90:	2318      	movs	r3, #24
 8002c92:	fb03 0101 	mla	r1, r3, r1, r0
 8002c96:	6808      	ldr	r0, [r1, #0]
 8002c98:	f420 3040 	bic.w	r0, r0, #196608	; 0x30000
 8002c9c:	6008      	str	r0, [r1, #0]
 8002c9e:	680b      	ldr	r3, [r1, #0]
 8002ca0:	431a      	orrs	r2, r3
 8002ca2:	600a      	str	r2, [r1, #0]
 8002ca4:	4770      	bx	lr

08002ca6 <dma_set_memory_size>:
 8002ca6:	3010      	adds	r0, #16
 8002ca8:	2318      	movs	r3, #24
 8002caa:	fb03 0101 	mla	r1, r3, r1, r0
 8002cae:	6808      	ldr	r0, [r1, #0]
 8002cb0:	f420 40c0 	bic.w	r0, r0, #24576	; 0x6000
 8002cb4:	6008      	str	r0, [r1, #0]
 8002cb6:	680b      	ldr	r3, [r1, #0]
 8002cb8:	431a      	orrs	r2, r3
 8002cba:	600a      	str	r2, [r1, #0]
 8002cbc:	4770      	bx	lr

08002cbe <dma_set_peripheral_size>:
 8002cbe:	3010      	adds	r0, #16
 8002cc0:	2318      	movs	r3, #24
 8002cc2:	fb03 0101 	mla	r1, r3, r1, r0
 8002cc6:	6808      	ldr	r0, [r1, #0]
 8002cc8:	f420 50c0 	bic.w	r0, r0, #6144	; 0x1800
 8002ccc:	6008      	str	r0, [r1, #0]
 8002cce:	680b      	ldr	r3, [r1, #0]
 8002cd0:	431a      	orrs	r2, r3
 8002cd2:	600a      	str	r2, [r1, #0]
 8002cd4:	4770      	bx	lr

08002cd6 <dma_enable_memory_increment_mode>:
 8002cd6:	2318      	movs	r3, #24
 8002cd8:	3010      	adds	r0, #16
 8002cda:	fb03 0101 	mla	r1, r3, r1, r0
 8002cde:	680b      	ldr	r3, [r1, #0]
 8002ce0:	f443 6380 	orr.w	r3, r3, #1024	; 0x400
 8002ce4:	600b      	str	r3, [r1, #0]
 8002ce6:	4770      	bx	lr

08002ce8 <dma_disable_peripheral_increment_mode>:
 8002ce8:	2318      	movs	r3, #24
 8002cea:	3010      	adds	r0, #16
 8002cec:	fb03 0101 	mla	r1, r3, r1, r0
 8002cf0:	680b      	ldr	r3, [r1, #0]
 8002cf2:	f423 7300 	bic.w	r3, r3, #512	; 0x200
 8002cf6:	600b      	str	r3, [r1, #0]
 8002cf8:	4770      	bx	lr

08002cfa <dma_channel_select>:
 8002cfa:	2318      	movs	r3, #24
 8002cfc:	3010      	adds	r0, #16
 8002cfe:	fb03 0101 	mla	r1, r3, r1, r0
 8002d02:	680b      	ldr	r3, [r1, #0]
 8002d04:	431a      	orrs	r2, r3
 8002d06:	600a      	str	r2, [r1, #0]
 8002d08:	4770      	bx	lr

08002d0a <dma_disable_transfer_error_interrupt>:
 8002d0a:	2318      	movs	r3, #24
 8002d0c:	3010      	adds	r0, #16
 8002d0e:	fb03 0101 	mla	r1, r3, r1, r0
 8002d12:	680b      	ldr	r3, [r1, #0]
 8002d14:	f023 0304 	bic.w	r3, r3, #4
 8002d18:	600b      	str	r3, [r1, #0]
 8002d1a:	4770      	bx	lr

08002d1c <dma_disable_half_transfer_interrupt>:
 8002d1c:	2318      	movs	r3, #24
 8002d1e:	3010      	adds	r0, #16
 8002d20:	fb03 0101 	mla	r1, r3, r1, r0
 8002d24:	680b      	ldr	r3, [r1, #0]
 8002d26:	f023 0308 	bic.w	r3, r3, #8
 8002d2a:	600b      	str	r3, [r1, #0]
 8002d2c:	4770      	bx	lr

08002d2e <dma_enable_transfer_complete_interrupt>:
 8002d2e:	b538      	push	{r3, r4, r5, lr}
 8002d30:	2220      	movs	r2, #32
 8002d32:	4604      	mov	r4, r0
 8002d34:	f7ff ff8c 	bl	8002c50 <dma_clear_interrupt_flags>
 8002d38:	3410      	adds	r4, #16
 8002d3a:	2318      	movs	r3, #24
 8002d3c:	fb13 4401 	smlabb	r4, r3, r1, r4
 8002d40:	6823      	ldr	r3, [r4, #0]
 8002d42:	f043 0310 	orr.w	r3, r3, #16
 8002d46:	6023      	str	r3, [r4, #0]
 8002d48:	bd38      	pop	{r3, r4, r5, pc}

08002d4a <dma_disable_direct_mode_error_interrupt>:
 8002d4a:	2318      	movs	r3, #24
 8002d4c:	3010      	adds	r0, #16
 8002d4e:	fb03 0101 	mla	r1, r3, r1, r0
 8002d52:	680b      	ldr	r3, [r1, #0]
 8002d54:	f023 0302 	bic.w	r3, r3, #2
 8002d58:	600b      	str	r3, [r1, #0]
 8002d5a:	4770      	bx	lr

08002d5c <dma_disable_fifo_error_interrupt>:
 8002d5c:	2318      	movs	r3, #24
 8002d5e:	3024      	adds	r0, #36	; 0x24
 8002d60:	fb03 0101 	mla	r1, r3, r1, r0
 8002d64:	680b      	ldr	r3, [r1, #0]
 8002d66:	f023 0380 	bic.w	r3, r3, #128	; 0x80
 8002d6a:	600b      	str	r3, [r1, #0]
 8002d6c:	4770      	bx	lr

08002d6e <dma_enable_stream>:
 8002d6e:	2318      	movs	r3, #24
 8002d70:	3010      	adds	r0, #16
 8002d72:	fb03 0101 	mla	r1, r3, r1, r0
 8002d76:	680b      	ldr	r3, [r1, #0]
 8002d78:	f043 0301 	orr.w	r3, r3, #1
 8002d7c:	600b      	str	r3, [r1, #0]
 8002d7e:	4770      	bx	lr

08002d80 <dma_disable_stream>:
 8002d80:	2318      	movs	r3, #24
 8002d82:	3010      	adds	r0, #16
 8002d84:	fb03 0101 	mla	r1, r3, r1, r0
 8002d88:	680b      	ldr	r3, [r1, #0]
 8002d8a:	f023 0301 	bic.w	r3, r3, #1
 8002d8e:	600b      	str	r3, [r1, #0]
 8002d90:	4770      	bx	lr

08002d92 <dma_set_peripheral_address>:
 8002d92:	2318      	movs	r3, #24
 8002d94:	fb03 0101 	mla	r1, r3, r1, r0
 8002d98:	690b      	ldr	r3, [r1, #16]
 8002d9a:	07db      	lsls	r3, r3, #31
 8002d9c:	bf58      	it	pl
 8002d9e:	618a      	strpl	r2, [r1, #24]
 8002da0:	4770      	bx	lr

08002da2 <dma_set_memory_address>:
 8002da2:	2318      	movs	r3, #24
 8002da4:	fb03 0101 	mla	r1, r3, r1, r0
 8002da8:	690b      	ldr	r3, [r1, #16]
 8002daa:	07d8      	lsls	r0, r3, #31
 8002dac:	d504      	bpl.n	8002db8 <dma_set_memory_address+0x16>
 8002dae:	f403 2340 	and.w	r3, r3, #786432	; 0xc0000
 8002db2:	f5b3 2f40 	cmp.w	r3, #786432	; 0xc0000
 8002db6:	d100      	bne.n	8002dba <dma_set_memory_address+0x18>
 8002db8:	61ca      	str	r2, [r1, #28]
 8002dba:	4770      	bx	lr

08002dbc <dma_set_number_of_data>:
 8002dbc:	3014      	adds	r0, #20
 8002dbe:	2318      	movs	r3, #24
 8002dc0:	fb03 0101 	mla	r1, r3, r1, r0
 8002dc4:	600a      	str	r2, [r1, #0]
 8002dc6:	4770      	bx	lr

08002dc8 <flash_prefetch_enable>:
 8002dc8:	4a02      	ldr	r2, [pc, #8]	; (8002dd4 <flash_prefetch_enable+0xc>)
 8002dca:	6813      	ldr	r3, [r2, #0]
 8002dcc:	f443 7380 	orr.w	r3, r3, #256	; 0x100
 8002dd0:	6013      	str	r3, [r2, #0]
 8002dd2:	4770      	bx	lr
 8002dd4:	40023c00 	.word	0x40023c00

08002dd8 <flash_set_ws>:
 8002dd8:	4a03      	ldr	r2, [pc, #12]	; (8002de8 <flash_set_ws+0x10>)
 8002dda:	6813      	ldr	r3, [r2, #0]
 8002ddc:	f023 030f 	bic.w	r3, r3, #15
 8002de0:	4318      	orrs	r0, r3
 8002de2:	6010      	str	r0, [r2, #0]
 8002de4:	4770      	bx	lr
 8002de6:	bf00      	nop
 8002de8:	40023c00 	.word	0x40023c00

08002dec <gpio_mode_setup>:
 8002dec:	e92d 41f0 	stmdb	sp!, {r4, r5, r6, r7, r8, lr}
 8002df0:	6805      	ldr	r5, [r0, #0]
 8002df2:	68c4      	ldr	r4, [r0, #12]
 8002df4:	2600      	movs	r6, #0
 8002df6:	f04f 0e03 	mov.w	lr, #3
 8002dfa:	fa43 f706 	asr.w	r7, r3, r6
 8002dfe:	07ff      	lsls	r7, r7, #31
 8002e00:	d50d      	bpl.n	8002e1e <gpio_mode_setup+0x32>
 8002e02:	0077      	lsls	r7, r6, #1
 8002e04:	fa0e fc07 	lsl.w	ip, lr, r7
 8002e08:	fa01 f807 	lsl.w	r8, r1, r7
 8002e0c:	ea25 050c 	bic.w	r5, r5, ip
 8002e10:	ea24 040c 	bic.w	r4, r4, ip
 8002e14:	fa02 f707 	lsl.w	r7, r2, r7
 8002e18:	ea48 0505 	orr.w	r5, r8, r5
 8002e1c:	433c      	orrs	r4, r7
 8002e1e:	3601      	adds	r6, #1
 8002e20:	2e10      	cmp	r6, #16
 8002e22:	d1ea      	bne.n	8002dfa <gpio_mode_setup+0xe>
 8002e24:	6005      	str	r5, [r0, #0]
 8002e26:	60c4      	str	r4, [r0, #12]
 8002e28:	e8bd 81f0 	ldmia.w	sp!, {r4, r5, r6, r7, r8, pc}

08002e2c <gpio_set_af>:
 8002e2c:	b5f0      	push	{r4, r5, r6, r7, lr}
 8002e2e:	6a07      	ldr	r7, [r0, #32]
 8002e30:	6a46      	ldr	r6, [r0, #36]	; 0x24
 8002e32:	2300      	movs	r3, #0
 8002e34:	f04f 0c0f 	mov.w	ip, #15
 8002e38:	fa42 f403 	asr.w	r4, r2, r3
 8002e3c:	07e5      	lsls	r5, r4, #31
 8002e3e:	d507      	bpl.n	8002e50 <gpio_set_af+0x24>
 8002e40:	009d      	lsls	r5, r3, #2
 8002e42:	fa0c f405 	lsl.w	r4, ip, r5
 8002e46:	ea27 0704 	bic.w	r7, r7, r4
 8002e4a:	fa01 f505 	lsl.w	r5, r1, r5
 8002e4e:	432f      	orrs	r7, r5
 8002e50:	3301      	adds	r3, #1
 8002e52:	2b08      	cmp	r3, #8
 8002e54:	d1f0      	bne.n	8002e38 <gpio_set_af+0xc>
 8002e56:	f04f 0c0f 	mov.w	ip, #15
 8002e5a:	fa42 f403 	asr.w	r4, r2, r3
 8002e5e:	07e4      	lsls	r4, r4, #31
 8002e60:	d508      	bpl.n	8002e74 <gpio_set_af+0x48>
 8002e62:	009c      	lsls	r4, r3, #2
 8002e64:	3c20      	subs	r4, #32
 8002e66:	fa0c f504 	lsl.w	r5, ip, r4
 8002e6a:	ea26 0605 	bic.w	r6, r6, r5
 8002e6e:	fa01 f404 	lsl.w	r4, r1, r4
 8002e72:	4326      	orrs	r6, r4
 8002e74:	3301      	adds	r3, #1
 8002e76:	2b10      	cmp	r3, #16
 8002e78:	d1ef      	bne.n	8002e5a <gpio_set_af+0x2e>
 8002e7a:	6207      	str	r7, [r0, #32]
 8002e7c:	6246      	str	r6, [r0, #36]	; 0x24
 8002e7e:	bdf0      	pop	{r4, r5, r6, r7, pc}

08002e80 <rcc_periph_clock_enable>:
 8002e80:	0943      	lsrs	r3, r0, #5
 8002e82:	f103 4380 	add.w	r3, r3, #1073741824	; 0x40000000
 8002e86:	f503 330e 	add.w	r3, r3, #145408	; 0x23800
 8002e8a:	f000 001f 	and.w	r0, r0, #31
 8002e8e:	6819      	ldr	r1, [r3, #0]
 8002e90:	2201      	movs	r2, #1
 8002e92:	fa02 f000 	lsl.w	r0, r2, r0
 8002e96:	4308      	orrs	r0, r1
 8002e98:	6018      	str	r0, [r3, #0]
 8002e9a:	4770      	bx	lr

08002e9c <rcc_is_osc_ready>:
 8002e9c:	2806      	cmp	r0, #6
 8002e9e:	d822      	bhi.n	8002ee6 <rcc_is_osc_ready+0x4a>
 8002ea0:	e8df f000 	tbb	[pc, r0]
 8002ea4:	091c1704 	.word	0x091c1704
 8002ea8:	130e      	.short	0x130e
 8002eaa:	15          	.byte	0x15
 8002eab:	00          	.byte	0x00
 8002eac:	4b0f      	ldr	r3, [pc, #60]	; (8002eec <rcc_is_osc_ready+0x50>)
 8002eae:	6818      	ldr	r0, [r3, #0]
 8002eb0:	f3c0 6040 	ubfx	r0, r0, #25, #1
 8002eb4:	4770      	bx	lr
 8002eb6:	4b0d      	ldr	r3, [pc, #52]	; (8002eec <rcc_is_osc_ready+0x50>)
 8002eb8:	6818      	ldr	r0, [r3, #0]
 8002eba:	f3c0 4040 	ubfx	r0, r0, #17, #1
 8002ebe:	4770      	bx	lr
 8002ec0:	4b0a      	ldr	r3, [pc, #40]	; (8002eec <rcc_is_osc_ready+0x50>)
 8002ec2:	6818      	ldr	r0, [r3, #0]
 8002ec4:	f3c0 0040 	ubfx	r0, r0, #1, #1
 8002ec8:	4770      	bx	lr
 8002eca:	4b09      	ldr	r3, [pc, #36]	; (8002ef0 <rcc_is_osc_ready+0x54>)
 8002ecc:	e7f9      	b.n	8002ec2 <rcc_is_osc_ready+0x26>
 8002ece:	4b09      	ldr	r3, [pc, #36]	; (8002ef4 <rcc_is_osc_ready+0x58>)
 8002ed0:	e7f7      	b.n	8002ec2 <rcc_is_osc_ready+0x26>
 8002ed2:	4b06      	ldr	r3, [pc, #24]	; (8002eec <rcc_is_osc_ready+0x50>)
 8002ed4:	6818      	ldr	r0, [r3, #0]
 8002ed6:	f3c0 7040 	ubfx	r0, r0, #29, #1
 8002eda:	4770      	bx	lr
 8002edc:	4b03      	ldr	r3, [pc, #12]	; (8002eec <rcc_is_osc_ready+0x50>)
 8002ede:	6818      	ldr	r0, [r3, #0]
 8002ee0:	f3c0 60c0 	ubfx	r0, r0, #27, #1
 8002ee4:	4770      	bx	lr
 8002ee6:	2000      	movs	r0, #0
 8002ee8:	4770      	bx	lr
 8002eea:	bf00      	nop
 8002eec:	40023800 	.word	0x40023800
 8002ef0:	40023870 	.word	0x40023870
 8002ef4:	40023874 	.word	0x40023874

08002ef8 <rcc_wait_for_osc_ready>:
 8002ef8:	b508      	push	{r3, lr}
 8002efa:	4602      	mov	r2, r0
 8002efc:	4610      	mov	r0, r2
 8002efe:	f7ff ffcd 	bl	8002e9c <rcc_is_osc_ready>
 8002f02:	2800      	cmp	r0, #0
 8002f04:	d0fa      	beq.n	8002efc <rcc_wait_for_osc_ready+0x4>
 8002f06:	bd08      	pop	{r3, pc}

08002f08 <rcc_osc_on>:
 8002f08:	2806      	cmp	r0, #6
 8002f0a:	d80a      	bhi.n	8002f22 <rcc_osc_on+0x1a>
 8002f0c:	e8df f000 	tbb	[pc, r0]
 8002f10:	0a1d1804 	.word	0x0a1d1804
 8002f14:	140f      	.short	0x140f
 8002f16:	16          	.byte	0x16
 8002f17:	00          	.byte	0x00
 8002f18:	4a0e      	ldr	r2, [pc, #56]	; (8002f54 <rcc_osc_on+0x4c>)
 8002f1a:	6813      	ldr	r3, [r2, #0]
 8002f1c:	f043 7380 	orr.w	r3, r3, #16777216	; 0x1000000
 8002f20:	6013      	str	r3, [r2, #0]
 8002f22:	4770      	bx	lr
 8002f24:	4a0b      	ldr	r2, [pc, #44]	; (8002f54 <rcc_osc_on+0x4c>)
 8002f26:	6813      	ldr	r3, [r2, #0]
 8002f28:	f443 3380 	orr.w	r3, r3, #65536	; 0x10000
 8002f2c:	e7f8      	b.n	8002f20 <rcc_osc_on+0x18>
 8002f2e:	4a09      	ldr	r2, [pc, #36]	; (8002f54 <rcc_osc_on+0x4c>)
 8002f30:	6813      	ldr	r3, [r2, #0]
 8002f32:	f043 0301 	orr.w	r3, r3, #1
 8002f36:	e7f3      	b.n	8002f20 <rcc_osc_on+0x18>
 8002f38:	4a07      	ldr	r2, [pc, #28]	; (8002f58 <rcc_osc_on+0x50>)
 8002f3a:	e7f9      	b.n	8002f30 <rcc_osc_on+0x28>
 8002f3c:	4a07      	ldr	r2, [pc, #28]	; (8002f5c <rcc_osc_on+0x54>)
 8002f3e:	e7f7      	b.n	8002f30 <rcc_osc_on+0x28>
 8002f40:	4a04      	ldr	r2, [pc, #16]	; (8002f54 <rcc_osc_on+0x4c>)
 8002f42:	6813      	ldr	r3, [r2, #0]
 8002f44:	f043 5380 	orr.w	r3, r3, #268435456	; 0x10000000
 8002f48:	e7ea      	b.n	8002f20 <rcc_osc_on+0x18>
 8002f4a:	4a02      	ldr	r2, [pc, #8]	; (8002f54 <rcc_osc_on+0x4c>)
 8002f4c:	6813      	ldr	r3, [r2, #0]
 8002f4e:	f043 6380 	orr.w	r3, r3, #67108864	; 0x4000000
 8002f52:	e7e5      	b.n	8002f20 <rcc_osc_on+0x18>
 8002f54:	40023800 	.word	0x40023800
 8002f58:	40023870 	.word	0x40023870
 8002f5c:	40023874 	.word	0x40023874

08002f60 <rcc_osc_off>:
 8002f60:	2806      	cmp	r0, #6
 8002f62:	d80a      	bhi.n	8002f7a <rcc_osc_off+0x1a>
 8002f64:	e8df f000 	tbb	[pc, r0]
 8002f68:	0a1d1804 	.word	0x0a1d1804
 8002f6c:	140f      	.short	0x140f
 8002f6e:	16          	.byte	0x16
 8002f6f:	00          	.byte	0x00
 8002f70:	4a0e      	ldr	r2, [pc, #56]	; (8002fac <rcc_osc_off+0x4c>)
 8002f72:	6813      	ldr	r3, [r2, #0]
 8002f74:	f023 7380 	bic.w	r3, r3, #16777216	; 0x1000000
 8002f78:	6013      	str	r3, [r2, #0]
 8002f7a:	4770      	bx	lr
 8002f7c:	4a0b      	ldr	r2, [pc, #44]	; (8002fac <rcc_osc_off+0x4c>)
 8002f7e:	6813      	ldr	r3, [r2, #0]
 8002f80:	f423 3380 	bic.w	r3, r3, #65536	; 0x10000
 8002f84:	e7f8      	b.n	8002f78 <rcc_osc_off+0x18>
 8002f86:	4a09      	ldr	r2, [pc, #36]	; (8002fac <rcc_osc_off+0x4c>)
 8002f88:	6813      	ldr	r3, [r2, #0]
 8002f8a:	f023 0301 	bic.w	r3, r3, #1
 8002f8e:	e7f3      	b.n	8002f78 <rcc_osc_off+0x18>
 8002f90:	4a07      	ldr	r2, [pc, #28]	; (8002fb0 <rcc_osc_off+0x50>)
 8002f92:	e7f9      	b.n	8002f88 <rcc_osc_off+0x28>
 8002f94:	4a07      	ldr	r2, [pc, #28]	; (8002fb4 <rcc_osc_off+0x54>)
 8002f96:	e7f7      	b.n	8002f88 <rcc_osc_off+0x28>
 8002f98:	4a04      	ldr	r2, [pc, #16]	; (8002fac <rcc_osc_off+0x4c>)
 8002f9a:	6813      	ldr	r3, [r2, #0]
 8002f9c:	f023 5380 	bic.w	r3, r3, #268435456	; 0x10000000
 8002fa0:	e7ea      	b.n	8002f78 <rcc_osc_off+0x18>
 8002fa2:	4a02      	ldr	r2, [pc, #8]	; (8002fac <rcc_osc_off+0x4c>)
 8002fa4:	6813      	ldr	r3, [r2, #0]
 8002fa6:	f023 6380 	bic.w	r3, r3, #67108864	; 0x4000000
 8002faa:	e7e5      	b.n	8002f78 <rcc_osc_off+0x18>
 8002fac:	40023800 	.word	0x40023800
 8002fb0:	40023870 	.word	0x40023870
 8002fb4:	40023874 	.word	0x40023874

08002fb8 <rcc_set_sysclk_source>:
 8002fb8:	4a03      	ldr	r2, [pc, #12]	; (8002fc8 <rcc_set_sysclk_source+0x10>)
 8002fba:	6813      	ldr	r3, [r2, #0]
 8002fbc:	f023 0303 	bic.w	r3, r3, #3
 8002fc0:	4318      	orrs	r0, r3
 8002fc2:	6010      	str	r0, [r2, #0]
 8002fc4:	4770      	bx	lr
 8002fc6:	bf00      	nop
 8002fc8:	40023808 	.word	0x40023808

08002fcc <rcc_set_ppre2>:
 8002fcc:	4a03      	ldr	r2, [pc, #12]	; (8002fdc <rcc_set_ppre2+0x10>)
 8002fce:	6813      	ldr	r3, [r2, #0]
 8002fd0:	f423 4360 	bic.w	r3, r3, #57344	; 0xe000
 8002fd4:	ea43 3040 	orr.w	r0, r3, r0, lsl #13
 8002fd8:	6010      	str	r0, [r2, #0]
 8002fda:	4770      	bx	lr
 8002fdc:	40023808 	.word	0x40023808

08002fe0 <rcc_set_ppre1>:
 8002fe0:	4a03      	ldr	r2, [pc, #12]	; (8002ff0 <rcc_set_ppre1+0x10>)
 8002fe2:	6813      	ldr	r3, [r2, #0]
 8002fe4:	f423 53e0 	bic.w	r3, r3, #7168	; 0x1c00
 8002fe8:	ea43 2080 	orr.w	r0, r3, r0, lsl #10
 8002fec:	6010      	str	r0, [r2, #0]
 8002fee:	4770      	bx	lr
 8002ff0:	40023808 	.word	0x40023808

08002ff4 <rcc_set_hpre>:
 8002ff4:	4a03      	ldr	r2, [pc, #12]	; (8003004 <rcc_set_hpre+0x10>)
 8002ff6:	6813      	ldr	r3, [r2, #0]
 8002ff8:	f023 03f0 	bic.w	r3, r3, #240	; 0xf0
 8002ffc:	ea43 1000 	orr.w	r0, r3, r0, lsl #4
 8003000:	6010      	str	r0, [r2, #0]
 8003002:	4770      	bx	lr
 8003004:	40023808 	.word	0x40023808

08003008 <rcc_set_main_pll_hsi>:
 8003008:	b510      	push	{r4, lr}
 800300a:	f647 74c0 	movw	r4, #32704	; 0x7fc0
 800300e:	ea04 1181 	and.w	r1, r4, r1, lsl #6
 8003012:	f000 003f 	and.w	r0, r0, #63	; 0x3f
 8003016:	061b      	lsls	r3, r3, #24
 8003018:	f003 6370 	and.w	r3, r3, #251658240	; 0xf000000
 800301c:	4301      	orrs	r1, r0
 800301e:	4319      	orrs	r1, r3
 8003020:	9b02      	ldr	r3, [sp, #8]
 8003022:	0854      	lsrs	r4, r2, #1
 8003024:	2b02      	cmp	r3, #2
 8003026:	f104 34ff 	add.w	r4, r4, #4294967295	; 0xffffffff
 800302a:	ea4f 4404 	mov.w	r4, r4, lsl #16
 800302e:	bf38      	it	cc
 8003030:	2302      	movcc	r3, #2
 8003032:	f404 3440 	and.w	r4, r4, #196608	; 0x30000
 8003036:	071b      	lsls	r3, r3, #28
 8003038:	f003 43e0 	and.w	r3, r3, #1879048192	; 0x70000000
 800303c:	4321      	orrs	r1, r4
 800303e:	4319      	orrs	r1, r3
 8003040:	4b01      	ldr	r3, [pc, #4]	; (8003048 <rcc_set_main_pll_hsi+0x40>)
 8003042:	6019      	str	r1, [r3, #0]
 8003044:	bd10      	pop	{r4, pc}
 8003046:	bf00      	nop
 8003048:	40023804 	.word	0x40023804

0800304c <rcc_set_main_pll_hse>:
 800304c:	b510      	push	{r4, lr}
 800304e:	9c02      	ldr	r4, [sp, #8]
 8003050:	2c02      	cmp	r4, #2
 8003052:	bf38      	it	cc
 8003054:	2402      	movcc	r4, #2
 8003056:	0724      	lsls	r4, r4, #28
 8003058:	061b      	lsls	r3, r3, #24
 800305a:	f003 6370 	and.w	r3, r3, #251658240	; 0xf000000
 800305e:	f004 44e0 	and.w	r4, r4, #1879048192	; 0x70000000
 8003062:	0852      	lsrs	r2, r2, #1
 8003064:	431c      	orrs	r4, r3
 8003066:	f000 003f 	and.w	r0, r0, #63	; 0x3f
 800306a:	f647 73c0 	movw	r3, #32704	; 0x7fc0
 800306e:	3a01      	subs	r2, #1
 8003070:	ea03 1181 	and.w	r1, r3, r1, lsl #6
 8003074:	4304      	orrs	r4, r0
 8003076:	0412      	lsls	r2, r2, #16
 8003078:	430c      	orrs	r4, r1
 800307a:	f402 3240 	and.w	r2, r2, #196608	; 0x30000
 800307e:	4b03      	ldr	r3, [pc, #12]	; (800308c <rcc_set_main_pll_hse+0x40>)
 8003080:	4314      	orrs	r4, r2
 8003082:	f444 0480 	orr.w	r4, r4, #4194304	; 0x400000
 8003086:	601c      	str	r4, [r3, #0]
 8003088:	bd10      	pop	{r4, pc}
 800308a:	bf00      	nop
 800308c:	40023804 	.word	0x40023804

08003090 <rcc_clock_setup_pll>:
 8003090:	b537      	push	{r0, r1, r2, r4, r5, lr}
 8003092:	4604      	mov	r4, r0
 8003094:	2004      	movs	r0, #4
 8003096:	f7ff ff37 	bl	8002f08 <rcc_osc_on>
 800309a:	2004      	movs	r0, #4
 800309c:	f7ff ff2c 	bl	8002ef8 <rcc_wait_for_osc_ready>
 80030a0:	2000      	movs	r0, #0
 80030a2:	f7ff ff89 	bl	8002fb8 <rcc_set_sysclk_source>
 80030a6:	79e3      	ldrb	r3, [r4, #7]
 80030a8:	2b01      	cmp	r3, #1
 80030aa:	d105      	bne.n	80030b8 <rcc_clock_setup_pll+0x28>
 80030ac:	2003      	movs	r0, #3
 80030ae:	f7ff ff2b 	bl	8002f08 <rcc_osc_on>
 80030b2:	2003      	movs	r0, #3
 80030b4:	f7ff ff20 	bl	8002ef8 <rcc_wait_for_osc_ready>
 80030b8:	f640 001c 	movw	r0, #2076	; 0x81c
 80030bc:	f7ff fee0 	bl	8002e80 <rcc_periph_clock_enable>
 80030c0:	7be0      	ldrb	r0, [r4, #15]
 80030c2:	f000 f965 	bl	8003390 <pwr_set_vos_scale>
 80030c6:	7b20      	ldrb	r0, [r4, #12]
 80030c8:	f7ff ff94 	bl	8002ff4 <rcc_set_hpre>
 80030cc:	7b60      	ldrb	r0, [r4, #13]
 80030ce:	f7ff ff87 	bl	8002fe0 <rcc_set_ppre1>
 80030d2:	7ba0      	ldrb	r0, [r4, #14]
 80030d4:	f7ff ff7a 	bl	8002fcc <rcc_set_ppre2>
 80030d8:	4a25      	ldr	r2, [pc, #148]	; (8003170 <rcc_clock_setup_pll+0xe0>)
 80030da:	8861      	ldrh	r1, [r4, #2]
 80030dc:	6813      	ldr	r3, [r2, #0]
 80030de:	f023 7380 	bic.w	r3, r3, #16777216	; 0x1000000
 80030e2:	6013      	str	r3, [r2, #0]
 80030e4:	79e3      	ldrb	r3, [r4, #7]
 80030e6:	79a5      	ldrb	r5, [r4, #6]
 80030e8:	7922      	ldrb	r2, [r4, #4]
 80030ea:	7820      	ldrb	r0, [r4, #0]
 80030ec:	9500      	str	r5, [sp, #0]
 80030ee:	2b01      	cmp	r3, #1
 80030f0:	7963      	ldrb	r3, [r4, #5]
 80030f2:	d131      	bne.n	8003158 <rcc_clock_setup_pll+0xc8>
 80030f4:	f7ff ffaa 	bl	800304c <rcc_set_main_pll_hse>
 80030f8:	4a1d      	ldr	r2, [pc, #116]	; (8003170 <rcc_clock_setup_pll+0xe0>)
 80030fa:	6813      	ldr	r3, [r2, #0]
 80030fc:	f043 7380 	orr.w	r3, r3, #16777216	; 0x1000000
 8003100:	6013      	str	r3, [r2, #0]
 8003102:	2000      	movs	r0, #0
 8003104:	f7ff fef8 	bl	8002ef8 <rcc_wait_for_osc_ready>
 8003108:	68a3      	ldr	r3, [r4, #8]
 800310a:	055a      	lsls	r2, r3, #21
 800310c:	d527      	bpl.n	800315e <rcc_clock_setup_pll+0xce>
 800310e:	f000 f91f 	bl	8003350 <flash_dcache_enable>
 8003112:	68a3      	ldr	r3, [r4, #8]
 8003114:	059b      	lsls	r3, r3, #22
 8003116:	d525      	bpl.n	8003164 <rcc_clock_setup_pll+0xd4>
 8003118:	f000 f92a 	bl	8003370 <flash_icache_enable>
 800311c:	68a0      	ldr	r0, [r4, #8]
 800311e:	f7ff fe5b 	bl	8002dd8 <flash_set_ws>
 8003122:	2002      	movs	r0, #2
 8003124:	f7ff ff48 	bl	8002fb8 <rcc_set_sysclk_source>
 8003128:	4a12      	ldr	r2, [pc, #72]	; (8003174 <rcc_clock_setup_pll+0xe4>)
 800312a:	6813      	ldr	r3, [r2, #0]
 800312c:	f3c3 0381 	ubfx	r3, r3, #2, #2
 8003130:	2b02      	cmp	r3, #2
 8003132:	d1fa      	bne.n	800312a <rcc_clock_setup_pll+0x9a>
 8003134:	4b10      	ldr	r3, [pc, #64]	; (8003178 <rcc_clock_setup_pll+0xe8>)
 8003136:	6922      	ldr	r2, [r4, #16]
 8003138:	601a      	str	r2, [r3, #0]
 800313a:	4b10      	ldr	r3, [pc, #64]	; (800317c <rcc_clock_setup_pll+0xec>)
 800313c:	6962      	ldr	r2, [r4, #20]
 800313e:	601a      	str	r2, [r3, #0]
 8003140:	4b0f      	ldr	r3, [pc, #60]	; (8003180 <rcc_clock_setup_pll+0xf0>)
 8003142:	69a2      	ldr	r2, [r4, #24]
 8003144:	601a      	str	r2, [r3, #0]
 8003146:	79e3      	ldrb	r3, [r4, #7]
 8003148:	2b01      	cmp	r3, #1
 800314a:	d10e      	bne.n	800316a <rcc_clock_setup_pll+0xda>
 800314c:	2004      	movs	r0, #4
 800314e:	b003      	add	sp, #12
 8003150:	e8bd 4030 	ldmia.w	sp!, {r4, r5, lr}
 8003154:	f7ff bf04 	b.w	8002f60 <rcc_osc_off>
 8003158:	f7ff ff56 	bl	8003008 <rcc_set_main_pll_hsi>
 800315c:	e7cc      	b.n	80030f8 <rcc_clock_setup_pll+0x68>
 800315e:	f000 f8ff 	bl	8003360 <flash_dcache_disable>
 8003162:	e7d6      	b.n	8003112 <rcc_clock_setup_pll+0x82>
 8003164:	f000 f90c 	bl	8003380 <flash_icache_disable>
 8003168:	e7d8      	b.n	800311c <rcc_clock_setup_pll+0x8c>
 800316a:	b003      	add	sp, #12
 800316c:	bd30      	pop	{r4, r5, pc}
 800316e:	bf00      	nop
 8003170:	40023800 	.word	0x40023800
 8003174:	40023808 	.word	0x40023808
 8003178:	20000000 	.word	0x20000000
 800317c:	20000004 	.word	0x20000004
 8003180:	20000008 	.word	0x20000008

08003184 <rng_get_random_blocking>:
 8003184:	4906      	ldr	r1, [pc, #24]	; (80031a0 <rng_get_random_blocking+0x1c>)
 8003186:	4b07      	ldr	r3, [pc, #28]	; (80031a4 <rng_get_random_blocking+0x20>)
 8003188:	680a      	ldr	r2, [r1, #0]
 800318a:	b912      	cbnz	r2, 8003192 <rng_get_random_blocking+0xe>
 800318c:	2201      	movs	r2, #1
 800318e:	600a      	str	r2, [r1, #0]
 8003190:	601a      	str	r2, [r3, #0]
 8003192:	681a      	ldr	r2, [r3, #0]
 8003194:	4804      	ldr	r0, [pc, #16]	; (80031a8 <rng_get_random_blocking+0x24>)
 8003196:	4350      	muls	r0, r2
 8003198:	3001      	adds	r0, #1
 800319a:	6018      	str	r0, [r3, #0]
 800319c:	4770      	bx	lr
 800319e:	bf00      	nop
 80031a0:	2000000c 	.word	0x2000000c
 80031a4:	20000010 	.word	0x20000010
 80031a8:	015a4e35 	.word	0x015a4e35

080031ac <usart_set_baudrate>:
 80031ac:	4a07      	ldr	r2, [pc, #28]	; (80031cc <usart_set_baudrate+0x20>)
 80031ae:	4b08      	ldr	r3, [pc, #32]	; (80031d0 <usart_set_baudrate+0x24>)
 80031b0:	b510      	push	{r4, lr}
 80031b2:	f420 6480 	bic.w	r4, r0, #1024	; 0x400
 80031b6:	4294      	cmp	r4, r2
 80031b8:	681b      	ldr	r3, [r3, #0]
 80031ba:	bf04      	itt	eq
 80031bc:	4b05      	ldreq	r3, [pc, #20]	; (80031d4 <usart_set_baudrate+0x28>)
 80031be:	681b      	ldreq	r3, [r3, #0]
 80031c0:	eb03 0351 	add.w	r3, r3, r1, lsr #1
 80031c4:	fbb3 f1f1 	udiv	r1, r3, r1
 80031c8:	6081      	str	r1, [r0, #8]
 80031ca:	bd10      	pop	{r4, pc}
 80031cc:	40011000 	.word	0x40011000
 80031d0:	20000004 	.word	0x20000004
 80031d4:	20000008 	.word	0x20000008

080031d8 <usart_set_databits>:
 80031d8:	68c3      	ldr	r3, [r0, #12]
 80031da:	2908      	cmp	r1, #8
 80031dc:	bf0c      	ite	eq
 80031de:	f423 5380 	biceq.w	r3, r3, #4096	; 0x1000
 80031e2:	f443 5380 	orrne.w	r3, r3, #4096	; 0x1000
 80031e6:	60c3      	str	r3, [r0, #12]
 80031e8:	4770      	bx	lr

080031ea <usart_set_stopbits>:
 80031ea:	6903      	ldr	r3, [r0, #16]
 80031ec:	f423 5340 	bic.w	r3, r3, #12288	; 0x3000
 80031f0:	4319      	orrs	r1, r3
 80031f2:	6101      	str	r1, [r0, #16]
 80031f4:	4770      	bx	lr

080031f6 <usart_set_parity>:
 80031f6:	68c3      	ldr	r3, [r0, #12]
 80031f8:	f423 63c0 	bic.w	r3, r3, #1536	; 0x600
 80031fc:	4319      	orrs	r1, r3
 80031fe:	60c1      	str	r1, [r0, #12]
 8003200:	4770      	bx	lr

08003202 <usart_set_mode>:
 8003202:	68c3      	ldr	r3, [r0, #12]
 8003204:	f023 030c 	bic.w	r3, r3, #12
 8003208:	4319      	orrs	r1, r3
 800320a:	60c1      	str	r1, [r0, #12]
 800320c:	4770      	bx	lr

0800320e <usart_set_flow_control>:
 800320e:	6943      	ldr	r3, [r0, #20]
 8003210:	f423 7340 	bic.w	r3, r3, #768	; 0x300
 8003214:	4319      	orrs	r1, r3
 8003216:	6141      	str	r1, [r0, #20]
 8003218:	4770      	bx	lr

0800321a <usart_enable>:
 800321a:	68c3      	ldr	r3, [r0, #12]
 800321c:	f443 5300 	orr.w	r3, r3, #8192	; 0x2000
 8003220:	60c3      	str	r3, [r0, #12]
 8003222:	4770      	bx	lr

08003224 <usart_send_blocking>:
 8003224:	b513      	push	{r0, r1, r4, lr}
 8003226:	4604      	mov	r4, r0
 8003228:	9101      	str	r1, [sp, #4]
 800322a:	f000 f82c 	bl	8003286 <usart_wait_send_ready>
 800322e:	9901      	ldr	r1, [sp, #4]
 8003230:	4620      	mov	r0, r4
 8003232:	b002      	add	sp, #8
 8003234:	e8bd 4010 	ldmia.w	sp!, {r4, lr}
 8003238:	f000 b81d 	b.w	8003276 <usart_send>

0800323c <usart_recv_blocking>:
 800323c:	b510      	push	{r4, lr}
 800323e:	4604      	mov	r4, r0
 8003240:	f000 f825 	bl	800328e <usart_wait_recv_ready>
 8003244:	4620      	mov	r0, r4
 8003246:	e8bd 4010 	ldmia.w	sp!, {r4, lr}
 800324a:	f000 b818 	b.w	800327e <usart_recv>

0800324e <usart_enable_rx_dma>:
 800324e:	6943      	ldr	r3, [r0, #20]
 8003250:	f043 0340 	orr.w	r3, r3, #64	; 0x40
 8003254:	6143      	str	r3, [r0, #20]
 8003256:	4770      	bx	lr

08003258 <usart_disable_rx_dma>:
 8003258:	6943      	ldr	r3, [r0, #20]
 800325a:	f023 0340 	bic.w	r3, r3, #64	; 0x40
 800325e:	6143      	str	r3, [r0, #20]
 8003260:	4770      	bx	lr

08003262 <usart_enable_tx_dma>:
 8003262:	6943      	ldr	r3, [r0, #20]
 8003264:	f043 0380 	orr.w	r3, r3, #128	; 0x80
 8003268:	6143      	str	r3, [r0, #20]
 800326a:	4770      	bx	lr

0800326c <usart_disable_tx_dma>:
 800326c:	6943      	ldr	r3, [r0, #20]
 800326e:	f023 0380 	bic.w	r3, r3, #128	; 0x80
 8003272:	6143      	str	r3, [r0, #20]
 8003274:	4770      	bx	lr

08003276 <usart_send>:
 8003276:	f3c1 0108 	ubfx	r1, r1, #0, #9
 800327a:	6041      	str	r1, [r0, #4]
 800327c:	4770      	bx	lr

0800327e <usart_recv>:
 800327e:	6840      	ldr	r0, [r0, #4]
 8003280:	f3c0 0008 	ubfx	r0, r0, #0, #9
 8003284:	4770      	bx	lr

08003286 <usart_wait_send_ready>:
 8003286:	6803      	ldr	r3, [r0, #0]
 8003288:	061b      	lsls	r3, r3, #24
 800328a:	d5fc      	bpl.n	8003286 <usart_wait_send_ready>
 800328c:	4770      	bx	lr

0800328e <usart_wait_recv_ready>:
 800328e:	6803      	ldr	r3, [r0, #0]
 8003290:	069b      	lsls	r3, r3, #26
 8003292:	d5fc      	bpl.n	800328e <usart_wait_recv_ready>
 8003294:	4770      	bx	lr

08003296 <blocking_handler>:
 8003296:	e7fe      	b.n	8003296 <blocking_handler>

08003298 <null_handler>:
 8003298:	4770      	bx	lr
	...

0800329c <reset_handler>:
 800329c:	b538      	push	{r3, r4, r5, lr}
 800329e:	4a1a      	ldr	r2, [pc, #104]	; (8003308 <reset_handler+0x6c>)
 80032a0:	4b1a      	ldr	r3, [pc, #104]	; (800330c <reset_handler+0x70>)
 80032a2:	491b      	ldr	r1, [pc, #108]	; (8003310 <reset_handler+0x74>)
 80032a4:	428b      	cmp	r3, r1
 80032a6:	d31b      	bcc.n	80032e0 <reset_handler+0x44>
 80032a8:	4a1a      	ldr	r2, [pc, #104]	; (8003314 <reset_handler+0x78>)
 80032aa:	2100      	movs	r1, #0
 80032ac:	4293      	cmp	r3, r2
 80032ae:	d31c      	bcc.n	80032ea <reset_handler+0x4e>
 80032b0:	4a19      	ldr	r2, [pc, #100]	; (8003318 <reset_handler+0x7c>)
 80032b2:	4c1a      	ldr	r4, [pc, #104]	; (800331c <reset_handler+0x80>)
 80032b4:	6813      	ldr	r3, [r2, #0]
 80032b6:	4d1a      	ldr	r5, [pc, #104]	; (8003320 <reset_handler+0x84>)
 80032b8:	f443 7300 	orr.w	r3, r3, #512	; 0x200
 80032bc:	6013      	str	r3, [r2, #0]
 80032be:	6f53      	ldr	r3, [r2, #116]	; 0x74
 80032c0:	f443 0370 	orr.w	r3, r3, #15728640	; 0xf00000
 80032c4:	6753      	str	r3, [r2, #116]	; 0x74
 80032c6:	42ac      	cmp	r4, r5
 80032c8:	d312      	bcc.n	80032f0 <reset_handler+0x54>
 80032ca:	4c16      	ldr	r4, [pc, #88]	; (8003324 <reset_handler+0x88>)
 80032cc:	4d16      	ldr	r5, [pc, #88]	; (8003328 <reset_handler+0x8c>)
 80032ce:	42ac      	cmp	r4, r5
 80032d0:	d312      	bcc.n	80032f8 <reset_handler+0x5c>
 80032d2:	f7fc ff6b 	bl	80001ac <main>
 80032d6:	4c15      	ldr	r4, [pc, #84]	; (800332c <reset_handler+0x90>)
 80032d8:	4d15      	ldr	r5, [pc, #84]	; (8003330 <reset_handler+0x94>)
 80032da:	42ac      	cmp	r4, r5
 80032dc:	d310      	bcc.n	8003300 <reset_handler+0x64>
 80032de:	bd38      	pop	{r3, r4, r5, pc}
 80032e0:	f852 0b04 	ldr.w	r0, [r2], #4
 80032e4:	f843 0b04 	str.w	r0, [r3], #4
 80032e8:	e7dc      	b.n	80032a4 <reset_handler+0x8>
 80032ea:	f843 1b04 	str.w	r1, [r3], #4
 80032ee:	e7dd      	b.n	80032ac <reset_handler+0x10>
 80032f0:	f854 3b04 	ldr.w	r3, [r4], #4
 80032f4:	4798      	blx	r3
 80032f6:	e7e6      	b.n	80032c6 <reset_handler+0x2a>
 80032f8:	f854 3b04 	ldr.w	r3, [r4], #4
 80032fc:	4798      	blx	r3
 80032fe:	e7e6      	b.n	80032ce <reset_handler+0x32>
 8003300:	f854 3b04 	ldr.w	r3, [r4], #4
 8003304:	4798      	blx	r3
 8003306:	e7e8      	b.n	80032da <reset_handler+0x3e>
 8003308:	08003428 	.word	0x08003428
 800330c:	20000000 	.word	0x20000000
 8003310:	2000000c 	.word	0x2000000c
 8003314:	20000014 	.word	0x20000014
 8003318:	e000ed14 	.word	0xe000ed14
 800331c:	08003428 	.word	0x08003428
 8003320:	08003428 	.word	0x08003428
 8003324:	08003428 	.word	0x08003428
 8003328:	08003428 	.word	0x08003428
 800332c:	08003428 	.word	0x08003428
 8003330:	08003428 	.word	0x08003428

08003334 <nvic_enable_irq>:
 8003334:	4b05      	ldr	r3, [pc, #20]	; (800334c <nvic_enable_irq+0x18>)
 8003336:	0942      	lsrs	r2, r0, #5
 8003338:	eb03 0382 	add.w	r3, r3, r2, lsl #2
 800333c:	f000 001f 	and.w	r0, r0, #31
 8003340:	2201      	movs	r2, #1
 8003342:	fa02 f000 	lsl.w	r0, r2, r0
 8003346:	6018      	str	r0, [r3, #0]
 8003348:	4770      	bx	lr
 800334a:	bf00      	nop
 800334c:	e000e100 	.word	0xe000e100

08003350 <flash_dcache_enable>:
 8003350:	4a02      	ldr	r2, [pc, #8]	; (800335c <flash_dcache_enable+0xc>)
 8003352:	6813      	ldr	r3, [r2, #0]
 8003354:	f443 6380 	orr.w	r3, r3, #1024	; 0x400
 8003358:	6013      	str	r3, [r2, #0]
 800335a:	4770      	bx	lr
 800335c:	40023c00 	.word	0x40023c00

08003360 <flash_dcache_disable>:
 8003360:	4a02      	ldr	r2, [pc, #8]	; (800336c <flash_dcache_disable+0xc>)
 8003362:	6813      	ldr	r3, [r2, #0]
 8003364:	f423 6380 	bic.w	r3, r3, #1024	; 0x400
 8003368:	6013      	str	r3, [r2, #0]
 800336a:	4770      	bx	lr
 800336c:	40023c00 	.word	0x40023c00

08003370 <flash_icache_enable>:
 8003370:	4a02      	ldr	r2, [pc, #8]	; (800337c <flash_icache_enable+0xc>)
 8003372:	6813      	ldr	r3, [r2, #0]
 8003374:	f443 7300 	orr.w	r3, r3, #512	; 0x200
 8003378:	6013      	str	r3, [r2, #0]
 800337a:	4770      	bx	lr
 800337c:	40023c00 	.word	0x40023c00

08003380 <flash_icache_disable>:
 8003380:	4a02      	ldr	r2, [pc, #8]	; (800338c <flash_icache_disable+0xc>)
 8003382:	6813      	ldr	r3, [r2, #0]
 8003384:	f423 7300 	bic.w	r3, r3, #512	; 0x200
 8003388:	6013      	str	r3, [r2, #0]
 800338a:	4770      	bx	lr
 800338c:	40023c00 	.word	0x40023c00

08003390 <pwr_set_vos_scale>:
 8003390:	4a04      	ldr	r2, [pc, #16]	; (80033a4 <pwr_set_vos_scale+0x14>)
 8003392:	6813      	ldr	r3, [r2, #0]
 8003394:	0380      	lsls	r0, r0, #14
 8003396:	f423 4340 	bic.w	r3, r3, #49152	; 0xc000
 800339a:	b280      	uxth	r0, r0
 800339c:	4318      	orrs	r0, r3
 800339e:	6010      	str	r0, [r2, #0]
 80033a0:	4770      	bx	lr
 80033a2:	bf00      	nop
 80033a4:	40007000 	.word	0x40007000

080033a8 <unprotected_key>:
 80033a8:	ffffffff ffffffff ffffffff ffffffff     ................
 80033b8:	ffffffff ffffffff ffffffff ffffffff     ................

080033c8 <benchmarkclock>:
 80033c8:	00c00008 01000408 00000600 00000400     ................
 80033d8:	0a037a00 00b71b00 016e3600              .z.......6n.

080033e4 <g_basePointCurve25519>:
 80033e4:	00000009 00000000 00000000 00000000     ................
	...
 8003408:	ffffffec ffffffff ffffffff ffffffff     ................
 8003418:	ffffffff ffffffff ffffffff 7fffffff     ................
